
./malware-unpacked.exe:     file format elf64-x86-64

Contents of section .interp:
 400238 2f6c6962 36342f6c 642d6c69 6e75782d  /lib64/ld-linux-
 400248 7838362d 36342e73 6f2e3200           x86-64.so.2.
Contents of section .note.ABI-tag:
 400254 04000000 10000000 01000000 474e5500  ............GNU.
 400264 00000000 02000000 06000000 20000000  ............ ...
Contents of section .note.gnu.build-id:
 400274 04000000 14000000 03000000 474e5500  ............GNU.
 400284 b99c535f 2157eb30 9422d487 0dec6e65  ..S_!W.0."....ne
 400294 0612c5fe                             ....
Contents of section .gnu.hash:
 400298 03000000 1c000000 01000000 06000000  ................
 4002a8 00012000 80011002 1c000000 1d000000  .. .............
 4002b8 00000000 291d8c1c 66556110 39f28b1c  ....)...fUa.9...
Contents of section .dynsym:
 4002c8 00000000 00000000 00000000 00000000  ................
 4002d8 00000000 00000000 c7000000 12000000  ................
 4002e8 00000000 00000000 00000000 00000000  ................
 4002f8 80000000 12000000 00000000 00000000  ................
 400308 00000000 00000000 19000000 12000000  ................
 400318 00000000 00000000 00000000 00000000  ................
 400328 57000000 12000000 00000000 00000000  W...............
 400338 00000000 00000000 15010000 12000000  ................
 400348 00000000 00000000 00000000 00000000  ................
 400358 5c000000 12000000 00000000 00000000  \...............
 400368 00000000 00000000 d5000000 12000000  ................
 400378 00000000 00000000 00000000 00000000  ................
 400388 e9000000 12000000 00000000 00000000  ................
 400398 00000000 00000000 91000000 12000000  ................
 4003a8 00000000 00000000 00000000 00000000  ................
 4003b8 03010000 12000000 00000000 00000000  ................
 4003c8 00000000 00000000 7a000000 12000000  ........z.......
 4003d8 00000000 00000000 00000000 00000000  ................
 4003e8 50000000 12000000 00000000 00000000  P...............
 4003f8 00000000 00000000 db000000 12000000  ................
 400408 00000000 00000000 00000000 00000000  ................
 400418 ab000000 12000000 00000000 00000000  ................
 400428 00000000 00000000 1b010000 20000000  ............ ...
 400438 00000000 00000000 00000000 00000000  ................
 400448 73000000 12000000 00000000 00000000  s...............
 400458 00000000 00000000 12000000 12000000  ................
 400468 00000000 00000000 00000000 00000000  ................
 400478 38000000 12000000 00000000 00000000  8...............
 400488 00000000 00000000 20000000 12000000  ........ .......
 400498 00000000 00000000 00000000 00000000  ................
 4004a8 32000000 12000000 00000000 00000000  2...............
 4004b8 00000000 00000000 2d000000 12000000  ........-.......
 4004c8 00000000 00000000 00000000 00000000  ................
 4004d8 48000000 12000000 00000000 00000000  H...............
 4004e8 00000000 00000000 96000000 12000000  ................
 4004f8 00000000 00000000 00000000 00000000  ................
 400508 ef000000 12000000 00000000 00000000  ................
 400518 00000000 00000000 b9000000 12000000  ................
 400528 00000000 00000000 00000000 00000000  ................
 400538 f5000000 12000000 00000000 00000000  ................
 400548 00000000 00000000 0b000000 12000000  ................
 400558 00000000 00000000 00000000 00000000  ................
 400568 a4000000 11001a00 60376000 00000000  ........`7`.....
 400578 08000000 00000000 6d000000 11001a00  ........m.......
 400588 70376000 00000000 08000000 00000000  p7`.............
 400598 ce000000 11001a00 80376000 00000000  .........7`.....
 4005a8 08000000 00000000                    ........
Contents of section .dynstr:
 4005b0 006c6962 632e736f 2e360073 6f636b65  .libc.so.6.socke
 4005c0 74006666 6c757368 00737472 63707900  t.fflush.strcpy.
 4005d0 5f5f7072 696e7466 5f63686b 00657869  __printf_chk.exi
 4005e0 7400666f 70656e00 5f5f6973 6f633939  t.fopen.__isoc99
 4005f0 5f737363 616e6600 636f6e6e 65637400  _sscanf.connect.
 400600 7369676e 616c0070 75747300 5f5f7374  signal.puts.__st
 400610 61636b5f 63686b5f 6661696c 00737464  ack_chk_fail.std
 400620 696e0073 7472746f 6c006667 65747300  in.strtol.fgets.
 400630 5f5f6572 726e6f5f 6c6f6361 74696f6e  __errno_location
 400640 00726561 64005f5f 66707269 6e74665f  .read.__fprintf_
 400650 63686b00 7374646f 7574005f 5f6d656d  chk.stdout.__mem
 400660 6d6f7665 5f63686b 005f5f63 74797065  move_chk.__ctype
 400670 5f625f6c 6f630067 6574656e 76007374  _b_loc.getenv.st
 400680 64657272 00616c61 726d0067 6574686f  derr.alarm.getho
 400690 73746279 6e616d65 00636c6f 73650073  stbyname.close.s
 4006a0 6c656570 005f5f73 7072696e 74665f63  leep.__sprintf_c
 4006b0 686b005f 5f6c6962 635f7374 6172745f  hk.__libc_start_
 4006c0 6d61696e 00777269 7465005f 5f676d6f  main.write.__gmo
 4006d0 6e5f7374 6172745f 5f00474c 4942435f  n_start__.GLIBC_
 4006e0 322e3300 474c4942 435f322e 3700474c  2.3.GLIBC_2.7.GL
 4006f0 4942435f 322e332e 3400474c 4942435f  IBC_2.3.4.GLIBC_
 400700 322e3400 474c4942 435f322e 322e3500  2.4.GLIBC_2.2.5.
Contents of section .gnu.version:
 400710 00000200 02000200 02000200 03000200  ................
 400720 02000200 02000200 02000200 04000000  ................
 400730 02000200 05000400 02000200 02000400  ................
 400740 02000600 04000200 02000200 0200      ..............
Contents of section .gnu.version_r:
 400750 01000500 01000000 10000000 00000000  ................
 400760 1369690d 00000600 2a010000 10000000  .ii.....*.......
 400770 1769690d 00000500 34010000 10000000  .ii.....4.......
 400780 74196909 00000400 3e010000 10000000  t.i.....>.......
 400790 1469690d 00000300 4a010000 10000000  .ii.....J.......
 4007a0 751a6909 00000200 54010000 00000000  u.i.....T.......
Contents of section .rela.dyn:
 4007b0 f82f6000 00000000 06000000 0f000000  ./`.............
 4007c0 00000000 00000000 60376000 00000000  ........`7`.....
 4007d0 05000000 1c000000 00000000 00000000  ................
 4007e0 70376000 00000000 05000000 1d000000  p7`.............
 4007f0 00000000 00000000 80376000 00000000  .........7`.....
 400800 05000000 1e000000 00000000 00000000  ................
Contents of section .rela.plt:
 400810 18306000 00000000 07000000 01000000  .0`.............
 400820 00000000 00000000 20306000 00000000  ........ 0`.....
 400830 07000000 02000000 00000000 00000000  ................
 400840 28306000 00000000 07000000 03000000  (0`.............
 400850 00000000 00000000 30306000 00000000  ........00`.....
 400860 07000000 04000000 00000000 00000000  ................
 400870 38306000 00000000 07000000 05000000  80`.............
 400880 00000000 00000000 40306000 00000000  ........@0`.....
 400890 07000000 06000000 00000000 00000000  ................
 4008a0 48306000 00000000 07000000 07000000  H0`.............
 4008b0 00000000 00000000 50306000 00000000  ........P0`.....
 4008c0 07000000 08000000 00000000 00000000  ................
 4008d0 58306000 00000000 07000000 09000000  X0`.............
 4008e0 00000000 00000000 60306000 00000000  ........`0`.....
 4008f0 07000000 0a000000 00000000 00000000  ................
 400900 68306000 00000000 07000000 0b000000  h0`.............
 400910 00000000 00000000 70306000 00000000  ........p0`.....
 400920 07000000 0c000000 00000000 00000000  ................
 400930 78306000 00000000 07000000 0d000000  x0`.............
 400940 00000000 00000000 80306000 00000000  .........0`.....
 400950 07000000 0e000000 00000000 00000000  ................
 400960 88306000 00000000 07000000 10000000  .0`.............
 400970 00000000 00000000 90306000 00000000  .........0`.....
 400980 07000000 11000000 00000000 00000000  ................
 400990 98306000 00000000 07000000 12000000  .0`.............
 4009a0 00000000 00000000 a0306000 00000000  .........0`.....
 4009b0 07000000 13000000 00000000 00000000  ................
 4009c0 a8306000 00000000 07000000 14000000  .0`.............
 4009d0 00000000 00000000 b0306000 00000000  .........0`.....
 4009e0 07000000 15000000 00000000 00000000  ................
 4009f0 b8306000 00000000 07000000 16000000  .0`.............
 400a00 00000000 00000000 c0306000 00000000  .........0`.....
 400a10 07000000 17000000 00000000 00000000  ................
 400a20 c8306000 00000000 07000000 18000000  .0`.............
 400a30 00000000 00000000 d0306000 00000000  .........0`.....
 400a40 07000000 19000000 00000000 00000000  ................
 400a50 d8306000 00000000 07000000 1a000000  .0`.............
 400a60 00000000 00000000 e0306000 00000000  .........0`.....
 400a70 07000000 1b000000 00000000 00000000  ................
Contents of section .init:
 400a80 4883ec08 488b056d 25200048 85c07405  H...H..m% .H..t.
 400a90 e8bb0100 004883c4 08c3               .....H....
Contents of section .plt:
 400aa0 ff356225 2000ff25 64252000 0f1f4000  .5b% ..%d% ...@.
 400ab0 ff256225 20006800 000000e9 e0ffffff  .%b% .h.........
 400ac0 ff255a25 20006801 000000e9 d0ffffff  .%Z% .h.........
 400ad0 ff255225 20006802 000000e9 c0ffffff  .%R% .h.........
 400ae0 ff254a25 20006803 000000e9 b0ffffff  .%J% .h.........
 400af0 ff254225 20006804 000000e9 a0ffffff  .%B% .h.........
 400b00 ff253a25 20006805 000000e9 90ffffff  .%:% .h.........
 400b10 ff253225 20006806 000000e9 80ffffff  .%2% .h.........
 400b20 ff252a25 20006807 000000e9 70ffffff  .%*% .h.....p...
 400b30 ff252225 20006808 000000e9 60ffffff  .%"% .h.....`...
 400b40 ff251a25 20006809 000000e9 50ffffff  .%.% .h.....P...
 400b50 ff251225 2000680a 000000e9 40ffffff  .%.% .h.....@...
 400b60 ff250a25 2000680b 000000e9 30ffffff  .%.% .h.....0...
 400b70 ff250225 2000680c 000000e9 20ffffff  .%.% .h..... ...
 400b80 ff25fa24 2000680d 000000e9 10ffffff  .%.$ .h.........
 400b90 ff25f224 2000680e 000000e9 00ffffff  .%.$ .h.........
 400ba0 ff25ea24 2000680f 000000e9 f0feffff  .%.$ .h.........
 400bb0 ff25e224 20006810 000000e9 e0feffff  .%.$ .h.........
 400bc0 ff25da24 20006811 000000e9 d0feffff  .%.$ .h.........
 400bd0 ff25d224 20006812 000000e9 c0feffff  .%.$ .h.........
 400be0 ff25ca24 20006813 000000e9 b0feffff  .%.$ .h.........
 400bf0 ff25c224 20006814 000000e9 a0feffff  .%.$ .h.........
 400c00 ff25ba24 20006815 000000e9 90feffff  .%.$ .h.........
 400c10 ff25b224 20006816 000000e9 80feffff  .%.$ .h.........
 400c20 ff25aa24 20006817 000000e9 70feffff  .%.$ .h.....p...
 400c30 ff25a224 20006818 000000e9 60feffff  .%.$ .h.....`...
 400c40 ff259a24 20006819 000000e9 50feffff  .%.$ .h.....P...
Contents of section .plt.got:
 400c50 ff25a223 20006690                    .%.# .f.
Contents of section .text:
 400c60 31ed4989 d15e4889 e24883e4 f0505449  1.I..^H..H...PTI
 400c70 c7c04022 400048c7 c1d02140 0048c7c7  ..@"@.H...!@.H..
 400c80 560d4000 e8b7feff fff4660f 1f440000  V.@.......f..D..
 400c90 b8673760 0055482d 60376000 4883f80e  .g7`.UH-`7`.H...
 400ca0 4889e576 1bb80000 00004885 c074115d  H..v......H..t.]
 400cb0 bf603760 00ffe066 0f1f8400 00000000  .`7`...f........
 400cc0 5dc30f1f 4000662e 0f1f8400 00000000  ]...@.f.........
 400cd0 be603760 00554881 ee603760 0048c1fe  .`7`.UH..`7`.H..
 400ce0 034889e5 4889f048 c1e83f48 01c648d1  .H..H..H..?H..H.
 400cf0 fe7415b8 00000000 4885c074 0b5dbf60  .t......H..t.].`
 400d00 376000ff e00f1f00 5dc3660f 1f440000  7`......].f..D..
 400d10 803d712a 20000075 11554889 e5e86eff  .=q* ..u.UH...n.
 400d20 ffff5dc6 055e2a20 0001f3c3 0f1f4000  ..]..^* ......@.
 400d30 bf202e60 0048833f 007505eb 930f1f00  . .`.H.?.u......
 400d40 b8000000 004885c0 74f15548 89e5ffd0  .....H..t.UH....
 400d50 5de97aff ffff5383 ff017510 488b050d  ].z...S...u.H...
 400d60 2a200048 8905262a 2000eb63 4889f383  * .H..&* ..cH...
 400d70 ff02753a 488b7e08 be642240 00e84efe  ..u:H.~..d"@..N.
 400d80 ffff4889 05072a20 004885c0 7541488b  ..H...* .H..uAH.
 400d90 4b08488b 13be6622 4000bf01 000000e8  K.H...f"@.......
 400da0 1cfeffff bf080000 00e832fe ffff488b  ..........2...H.
 400db0 16be8322 4000bf01 000000b8 00000000  ..."@...........
 400dc0 e8fbfdff ffbf0800 0000e811 feffffe8  ................
 400dd0 b3050000 bfe82240 00e802fd ffffbf28  ......"@.......(
 400de0 234000e8 f8fcffff e8930600 004889c7  #@...........H..
 400df0 e8980000 00e8ac07 0000bf58 234000e8  ...........X#@..
 400e00 dcfcffff e8770600 004889c7 e8980000  .....w...H......
 400e10 00e89007 0000bf9d 224000e8 c0fcffff  ........"@......
 400e20 e85b0600 004889c7 e8e40000 00e87407  .[...H........t.
 400e30 0000bfbb 224000e8 a4fcffff e83f0600  ...."@.......?..
 400e40 004889c7 e8d30100 00e85807 0000bf88  .H........X.....
 400e50 234000e8 88fcffff e8230600 004889c7  #@.......#...H..
 400e60 e8240200 00e83c07 0000bfca 224000e8  .$....<....."@..
 400e70 6cfcffff e8070600 004889c7 e8490200  l........H...I..
 400e80 00e82007 0000b800 0000005b c34883ec  .. ........[.H..
 400e90 08beb023 4000e885 04000085 c07405e8  ...#@........t..
 400ea0 7b050000 4883c408 c3555348 83ec2864  {...H....USH..(d
 400eb0 488b0425 28000000 48894424 1831c048  H..%(...H.D$.1.H
 400ec0 89e6e87a 05000083 3c240079 05e84d05  ...z....<$.y..M.
 400ed0 00004889 e5bb0100 000089d8 03450039  ..H..........E.9
 400ee0 45047405 e8360500 0083c301 4883c504  E.t..6......H...
 400ef0 83fb0675 e5488b44 24186448 33042528  ...u.H.D$.dH3.%(
 400f00 00000074 05e8f6fb ffff4883 c4285b5d  ...t......H..([]
 400f10 c34883ec 1864488b 04252800 00004889  .H...dH..%(...H.
 400f20 44240831 c0488d4c 24044889 e2beaf25  D$.1.H.L$.H....%
 400f30 4000e879 fcffff83 f8017f05 e8de0400  @..y............
 400f40 00833c24 0777658b 0424ff24 c5202440  ..<$.we..$.$. $@
 400f50 00b8b103 0000eb05 b8000000 002db303  .............-..
 400f60 0000eb05 b8000000 00053801 0000eb05  ..........8.....
 400f70 b8000000 002d6203 0000eb05 b8000000  .....-b.........
 400f80 00056203 0000eb05 b8000000 002d6203  ..b..........-b.
 400f90 0000eb05 b8000000 00056203 0000eb05  ..........b.....
 400fa0 b8000000 002d6203 0000eb0a e86e0400  .....-b......n..
 400fb0 00b80000 0000833c 24057f06 3b442404  .......<$...;D$.
 400fc0 7405e858 04000048 8b442408 64483304  t..X...H.D$.dH3.
 400fd0 25280000 007405e8 24fbffff 4883c418  %(...t..$...H...
 400fe0 c385ff7e 2b89f083 ff01742e 41545553  ...~+.....t.ATUS
 400ff0 89f589fb 8d7fffe8 e5ffffff 448d6405  ............D.d.
 401000 008d7bfe 89eee8d6 ffffff44 01e0eb06  ..{........D....
 401010 b8000000 00c35b5d 415cf3c3 4883ec18  ......[]A\..H...
 401020 64488b04 25280000 00488944 240831c0  dH..%(...H.D$.1.
 401030 4889e148 8d542404 beaf2540 00e86efb  H..H.T$...%@..n.
 401040 ffff83f8 02750b8b 042483e8 0283f802  .....u...$......
 401050 7605e8c8 0300008b 3424bf08 000000e8  v.......4$......
 401060 7dffffff 3b442404 7405e8b0 03000048  }...;D$.t......H
 401070 8b442408 64483304 25280000 007405e8  .D$.dH3.%(...t..
 401080 7cfaffff 4883c418 c3534889 fbe87002  |...H....SH...p.
 401090 000083f8 067405e8 83030000 4889d848  .....t......H..H
 4010a0 8d7b06b9 00000000 0fb61083 e20f030c  .{..............
 4010b0 95602440 004883c0 014839f8 75ea83f9  .`$@.H...H9.u...
 4010c0 367405e8 57030000 5bc34156 41554154  6t..W...[.AVAUAT
 4010d0 55534883 ec606448 8b042528 00000048  USH..`dH..%(...H
 4010e0 89442458 31c04889 e6e85303 00004989  .D$X1.H...S...I.
 4010f0 e44989e5 41be0000 00004c89 ed418b45  .I..A.....L..A.E
 401100 0083e801 83f80576 05e81103 00004183  .......v......A.
 401110 c6014183 fe067421 4489f348 63c38b04  ..A...t!D..Hc...
 401120 84394500 7505e8f4 02000083 c30183fb  .9E.u...........
 401130 057ee849 83c504eb c1488d4c 2418ba07  .~.I.....H.L$...
 401140 00000089 d0412b04 24418904 244983c4  .....A+.$A..$I..
 401150 044c39e1 75edbe00 000000eb 1a488b52  .L9.u........H.R
 401160 0883c001 39c875f5 48895474 204883c6  ....9.u.H.Tt H..
 401170 044883fe 1874148b 0c34b801 000000ba  .H...t...4......
 401180 f0326000 83f9017f d4ebdd48 8b5c2420  .2`........H.\$
 401190 488d4424 20488d74 24484889 d9488b50  H.D$ H.t$HH..H.P
 4011a0 08488951 084883c0 084889d1 4839c675  .H.Q.H...H..H9.u
 4011b0 ec48c742 08000000 00bd0500 0000488b  .H.B..........H.
 4011c0 43088b00 39037d05 e8520200 00488b5b  C...9.}..R...H.[
 4011d0 0883ed01 75e8488b 44245864 48330425  ....u.H.D$XdH3.%
 4011e0 28000000 7405e815 f9ffff48 83c4605b  (...t......H..`[
 4011f0 5d415c41 5d415ec3 4883ec08 4885ff74  ]A\A]A^.H...H..t
 401200 2b8b1739 f27e0d48 8b7f08e8 e8ffffff  +..9.~.H........
 401210 01c0eb1d b8000000 0039f274 14488b7f  .........9.t.H..
 401220 10e8d2ff ffff8d44 0001eb05 b8ffffff  .......D........
 401230 ff4883c4 08c353e8 44020000 ba0a0000  .H....S.D.......
 401240 00be0000 00004889 c7e842f9 ffff4889  ......H...B...H.
 401250 c38d40ff 3de80300 007605e8 bf010000  ..@.=....v......
 401260 89debf10 316000e8 8cffffff 83f80474  ....1`.........t
 401270 05e8a901 0000bfe0 234000e8 60f8ffff  ........#@..`...
 401280 e8210300 005bc348 83ec08bf a0244000  .!...[.H.....$@.
 401290 e84bf8ff ffbf0300 0000e871 f9ffffbe  .K.........q....
 4012a0 62254000 bf010000 00b80000 0000e80d  b%@.............
 4012b0 f9ffff48 8b3da624 2000e8e1 f8ffffbf  ...H.=.$ .......
 4012c0 01000000 e847f9ff ffbf6a25 4000e80d  .....G....j%@...
 4012d0 f8ffffbf 10000000 e803f9ff ff4883ec  .............H..
 4012e0 084889fa be722540 00bf0100 0000b800  .H...r%@........
 4012f0 000000e8 c8f8ffff bf080000 00e8def8  ................
 401300 ffff803f 007413b8 00000000 4883c701  ...?.t......H...
 401310 83c00180 3f0075f4 f3c3b800 000000c3  ....?.u.........
 401320 41545553 4889fb48 89f5e8d3 ffffff41  ATUSH..H.......A
 401330 89c44889 efe8c8ff ffffba01 00000041  ..H............A
 401340 39c4753c 0fb60384 c074223a 45007407  9.u<.....t":E.t.
 401350 eb223a45 00752448 83c30148 83c5010f  .":E.u$H...H....
 401360 b60384c0 75ecba00 000000eb 13ba0000  ....u...........
 401370 0000eb0c ba010000 00eb05ba 01000000  ................
 401380 89d05b5d 415cc348 83ec08be 87124000  ..[]A\.H......@.
 401390 bf020000 00e8c6f7 ffff4883 c408c3f3  ..........H.....
 4013a0 c3555348 83ec0848 89fdeb17 e86ff8ff  .USH...H.....o..
 4013b0 ff4883c5 01480fbe db488b00 f6445801  .H...H...H...DX.
 4013c0 20740f0f b65d0084 db75e1b8 01000000   t...]...u......
 4013d0 eb05b800 00000048 83c4085b 5dc35348  .......H...[].SH
 4013e0 6305a623 2000488d 3c8048c1 e7044881  c..# .H.<.H...H.
 4013f0 c7a03760 00488b15 94232000 be500000  ..7`.H...# ..P..
 401400 00e84af7 ffff4889 c34885c0 740c4889  ..J...H..H..t.H.
 401410 c7e88bff ffff85c0 75c54889 d85bc348  ........u.H..[.H
 401420 83ec08bf 83254000 e8b3f6ff ffbf8c25  .....%@........%
 401430 4000e8a9 f6ffffbf 08000000 e89ff7ff  @...............
 401440 ff4883ec 084889f2 488d4e04 488d4614  .H...H..H.N.H.F.
 401450 50488d46 10504c8d 4e0c4c8d 4608bea3  PH.F.PL.N.L.F...
 401460 254000b8 00000000 e843f7ff ff4883c4  %@.......C...H..
 401470 1083f805 7f05e8a4 ffffff48 83c408c3  ...........H....
 401480 4883ec08 b8000000 00e850ff ffff4885  H.........P...H.
 401490 c0756e48 8b05d622 20004839 05ef2220  .unH..." .H9.."
 4014a0 007514bf b5254000 e833f6ff ffbf0800  .u...%@..3......
 4014b0 0000e829 f7ffffbf d3254000 e8eff5ff  ...).....%@.....
 4014c0 ff4885c0 740abf00 000000e8 10f7ffff  .H..t...........
 4014d0 488b0599 22200048 8905b222 2000b800  H..." .H..." ...
 4014e0 000000e8 f6feffff 4885c075 14bfb525  ........H..u...%
 4014f0 4000e8e9 f5ffffbf 00000000 e8dff6ff  @...............
 401500 ff8b3585 22200048 63c6488d 148048c1  ..5." .Hc.H...H.
 401510 e2044881 c2a03760 00b80000 000048c7  ..H...7`......H.
 401520 c1ffffff ff4889d7 f2ae48f7 d14883e9  .....H....H..H..
 401530 0183f94e 7e46bfde 254000e8 a0f5ffff  ...N~F..%@......
 401540 8b054622 20008d50 0189153d 22200048  ..F" ..P...=" .H
 401550 98486bc0 5048bf2a 2a2a7472 756e6348  .Hk.PH.***truncH
 401560 89b8a037 600048bf 61746564 2a2a2a00  ...7`.H.ated***.
 401570 4889b8a8 376000e8 a3feffff 83e90148  H...7`.........H
 401580 63c94863 c6488d04 8048c1e0 04c68401  c.Hc.H...H......
 401590 a0376000 008d4601 8905ee21 20004889  .7`...F....! .H.
 4015a0 d04883c4 08c34883 ec786448 8b042528  .H....H..xdH..%(
 4015b0 00000048 89442468 31c0833d cb212000  ...H.D$h1..=.! .
 4015c0 06755e4c 8d442410 488d4c24 0c488d54  .u^L.D$.H.L$.H.T
 4015d0 2408bef9 254000bf 90386000 e8cff5ff  $...%@...8`.....
 4015e0 ff83f803 7531be02 26400048 8d7c2410  ....u1..&@.H.|$.
 4015f0 e82bfdff ff85c075 1ebfd824 4000e8dd  .+.....u...$@...
 401600 f4ffffbf 00254000 e8d3f4ff ffb80000  .....%@.........
 401610 0000e81f fcffffbf 38254000 e8bff4ff  ........8%@.....
 401620 ff488b44 24686448 33042528 00000074  .H.D$hdH3.%(...t
 401630 05e8caf4 ffff4883 c478c348 83ec08b9  ......H..x.H....
 401640 00000000 ba582640 00be0100 0000488b  .....X&@......H.
 401650 3d2b2120 00b80000 0000e8a1 f5ffffbf  =+! ............
 401660 01000000 e877f5ff ff415641 55415455  .....w...AVAUATU
 401670 534883ec 104889fb 4989f549 89d66448  SH...H..I..I..dH
 401680 8b042528 00000048 89442408 31c041bc  ..%(...H.D$.1.A.
 401690 01000000 488d6f10 4883fa01 772ceb6d  ....H.o.H...w,.m
 4016a0 ba002000 004889ee 8b3be881 f4ffff89  .. ..H...;......
 4016b0 430485c0 790ce805 f4ffff83 3804740a  C...y.......8.t.
 4016c0 eb6c85c0 74714889 6b088b43 0485c07e  .l..tqH.k..C...~
 4016d0 cf488b53 080fb60a 884c2407 4883c201  .H.S.....L$.H...
 4016e0 48895308 83e80189 43044983 c5014188  H.S.....C.I...A.
 4016f0 4dff80f9 0a750aeb 144183fc 01750eeb  M....u...A...u..
 401700 164183c4 014963c4 4c39f072 bd41c645  .A...Ic.L9.r.A.E
 401710 00004963 c4eb05b8 00000000 488b4c24  ..Ic........H.L$
 401720 08644833 0c252800 00007422 eb1b48c7  .dH3.%(...t"..H.
 401730 c0ffffff ffeb05b8 00000000 85c074b9  ..............t.
 401740 48c7c0ff ffffffeb d3e8b2f3 ffff4883  H.............H.
 401750 c4105b5d 415c415d 415ec341 57415641  ..[]A\A]A^.AWAVA
 401760 55415455 534881ec 68a00000 4889fd41  UATUSH..h...H..A
 401770 89f54889 54240848 894c2410 4c894424  ..H.T$.H.L$.L.D$
 401780 184c89cb 4c8bbc24 a0a00000 64488b04  .L..L..$....dH..
 401790 25280000 00488984 2458a000 0031c0c7  %(...H..$X...1..
 4017a0 44242c00 000000ba 00000000 be010000  D$,.............
 4017b0 00bf0200 0000e885 f4ffff85 c0795048  .............yPH
 4017c0 b8457272 6f723a20 43498907 48b86c69  .Error: CI..H.li
 4017d0 656e7420 756e4989 470848b8 61626c65  ent unI.G.H.able
 4017e0 20746f20 49894710 48b86372 65617465   to I.G.H.create
 4017f0 20734989 471841c7 47206f63 6b656641   sI.G.A.G ockefA
 401800 c7472474 00b8ffff ffffe915 06000041  .G$t...........A
 401810 89c44889 efe856f3 ffff4885 c0756b48  ..H...V...H..ukH
 401820 b8457272 6f723a20 44498907 48b84e53  .Error: DI..H.NS
 401830 20697320 756e4989 470848b8 61626c65   is unI.G.H.able
 401840 20746f20 49894710 48b87265 736f6c76   to I.G.H.resolv
 401850 65204989 471848b8 73657276 65722061  e I.G.H.server a
 401860 49894720 41c74728 64647265 6641c747  I.G A.G(ddrefA.G
 401870 2c737341 c6472e00 4489e7e8 a0f2ffff  ,ssA.G..D.......
 401880 b8ffffff ffe99a05 000048c7 44243000  ..........H.D$0.
 401890 00000048 c7442438 00000000 66c74424  ...H.D$8....f.D$
 4018a0 30020048 63501448 8b401848 8d7c2434  0..HcP.H.@.H.|$4
 4018b0 b90c0000 00488b30 e8c3f2ff ff6641c1  .....H.0.....fA.
 4018c0 cd086644 896c2432 ba100000 00488d74  ..fD.l$2.....H.t
 4018d0 24304489 e7e816f3 ffff85c0 795d48b8  $0D.........y]H.
 4018e0 4572726f 723a2055 49890748 b86e6162  Error: UI..H.nab
 4018f0 6c652074 6f498947 0848b820 636f6e6e  le toI.G.H. conn
 401900 65637449 89471048 b820746f 20746865  ectI.G.H. to the
 401910 20498947 1841c747 20736572 766641c7   I.G.A.G servfA.
 401920 47246572 41c64726 004489e7 e8eff1ff  G$erA.G&.D......
 401930 ffb8ffff ffffe9e9 04000049 c7c1ffff  ...........I....
 401940 ffffb800 0000004c 89c94889 dff2ae48  .......L..H....H
 401950 f7d14889 ce4c89c9 488b7c24 08f2ae49  ..H..L..H.|$...I
 401960 89c84c89 c9488b7c 2410f2ae 48f7d148  ..L..H.|$...H..H
 401970 89ca4c89 c9488b7c 2418f2ae 4c29c248  ..L..H.|$...L).H
 401980 29ca488d 4476fd48 8d44027b 483d0020  ).H.Dv.H.D.{H=.
 401990 00007673 48b84572 726f723a 20524989  ..vsH.Error: RI.
 4019a0 0748b865 73756c74 20737449 89470848  .H.esult stI.G.H
 4019b0 b872696e 6720746f 6f498947 1048b820  .ring tooI.G.H.
 4019c0 6c617267 652e2049 89471848 b8496e63  large. I.G.H.Inc
 4019d0 72656173 65498947 2048b820 5355424d  reaseI.G H. SUBM
 4019e0 49545249 89472848 b85f4d41 58425546  ITRI.G(H._MAXBUF
 4019f0 00498947 304489e7 e823f1ff ffb8ffff  .I.G0D...#......
 401a00 ffffe91d 04000048 8d942450 400000b9  .......H..$P@...
 401a10 00040000 b8000000 004889d7 f348ab48  .........H...H.H
 401a20 c7c1ffff ffff4889 dff2ae48 89c848f7  ......H....H..H.
 401a30 d04883e8 0185c00f 84900400 008d40ff  .H............@.
 401a40 4c8d7403 014889d5 49bdd9ff 00000000  L.t..H..I.......
 401a50 2000440f b603418d 40d63c35 7706490f   .D...A.@.<5w.I.
 401a60 a3c5720d 4489c083 e0df83e8 413c1977  ..r.D.......A<.w
 401a70 0a448845 00488d6d 01eb6c41 80f82075  .D.E.H.m..lA.. u
 401a80 0ac64500 2b488d6d 01eb5c41 8d40e03c  ..E.+H.m..\A.@.<
 401a90 5f760a41 80f8090f 85a30300 00450fb6  _v.A.........E..
 401aa0 c0b92827 4000ba08 000000be 01000000  ..('@...........
 401ab0 488dbc24 50800000 b8000000 00e86ef1  H..$P.........n.
 401ac0 ffff0fb6 84245080 00008845 000fb684  .....$P....E....
 401ad0 24518000 00884501 0fb68424 52800000  $Q....E....$R...
 401ae0 88450248 8d6d0348 83c30149 39de0f85  .E.H.m.H...I9...
 401af0 5effffff e9d40300 004889da 4889ee44  ^........H..H..D
 401b00 89e7e8e9 efffff48 85c07f0f e8afefff  .......H........
 401b10 ff833804 7512b800 00000048 01c54829  ..8.u......H..H)
 401b20 c375d64d 85ed795f 48b84572 726f723a  .u.M..y_H.Error:
 401b30 20434989 0748b86c 69656e74 20756e49   CI..H.lient unI
 401b40 89470848 b861626c 6520746f 20498947  .G.H.able to I.G
 401b50 1048b877 72697465 20746f49 89471848  .H.write toI.G.H
 401b60 b8207468 65207365 72498947 2041c747  . the serI.G A.G
 401b70 28766572 004489e7 e8a3efff ffb8ffff  (ver.D..........
 401b80 ffffe99d 02000044 89642440 c7442444  .......D.d$@.D$D
 401b90 00000000 488d4424 50488944 2448ba00  ....H.D$PH.D$H..
 401ba0 20000048 8db42450 20000048 8d7c2440   ..H..$P ..H.|$@
 401bb0 e8b4faff ff4885c0 7f7448b8 4572726f  .....H...tH.Erro
 401bc0 723a2043 49890748 b86c6965 6e742075  r: CI..H.lient u
 401bd0 6e498947 0848b861 626c6520 746f2049  nI.G.H.able to I
 401be0 89471048 b8726561 64206669 72498947  .G.H.read firI.G
 401bf0 1848b873 74206865 61646549 89472048  .H.st headeI.G H
 401c00 b8722066 726f6d20 73498947 2841c747  .r from sI.G(A.G
 401c10 30657276 656641c7 47347200 4489e7e8  0ervefA.G4r.D...
 401c20 fceeffff b8ffffff ffe9f601 00004c8d  ..............L.
 401c30 84245080 0000488d 4c242c48 8d942450  .$P...H.L$,H..$P
 401c40 600000be 2f274000 488dbc24 50200000  `.../'@.H..$P ..
 401c50 b8000000 00e856ef ffff448b 44242c41  ......V...D.D$,A
 401c60 81f8c800 00000f84 be000000 4c8d8c24  ............L..$
 401c70 50800000 b9802640 0048c7c2 ffffffff  P.....&@.H......
 401c80 be010000 004c89ff b8000000 00e89eef  .....L..........
 401c90 ffff4489 e7e886ee ffffb8ff ffffffe9  ..D.............
 401ca0 80010000 ba002000 00488db4 24502000  ...... ..H..$P .
 401cb0 00488d7c 2440e8ae f9ffff48 85c07f6a  .H.|$@.....H...j
 401cc0 48b84572 726f723a 20434989 0748b86c  H.Error: CI..H.l
 401cd0 69656e74 20756e49 89470848 b861626c  ient unI.G.H.abl
 401ce0 6520746f 20498947 1048b872 65616420  e to I.G.H.read
 401cf0 68656149 89471848 b8646572 73206672  heaI.G.H.ders fr
 401d00 6f498947 2048b86d 20736572 76657249  oI.G H.m serverI
 401d10 89472841 c6473000 4489e7e8 00eeffff  .G(A.G0.D.......
 401d20 b8ffffff ffe9fa00 000080bc 24502000  ............$P .
 401d30 000d0f85 6cffffff 80bc2451 2000000a  ....l.....$Q ...
 401d40 0f855eff ffff80bc 24522000 00000f85  ..^.....$R .....
 401d50 50ffffff ba002000 00488db4 24502000  P..... ..H..$P .
 401d60 00488d7c 2440e8fe f8ffff48 85c07f70  .H.|$@.....H...p
 401d70 48b84572 726f723a 20434989 0748b86c  H.Error: CI..H.l
 401d80 69656e74 20756e49 89470848 b861626c  ient unI.G.H.abl
 401d90 6520746f 20498947 1048b872 65616420  e to I.G.H.read
 401da0 73746149 89471848 b8747573 206d6573  staI.G.H.tus mes
 401db0 73498947 2048b861 67652066 726f6d49  sI.G H.age fromI
 401dc0 89472848 b8207365 72766572 00498947  .G(H. server.I.G
 401dd0 304489e7 e847edff ffb8ffff ffffeb44  0D...G.........D
 401de0 488db424 50200000 4c89ffe8 e0ecffff  H..$P ..L.......
 401df0 4489e7e8 28edffff 410fb617 b84f0000  D...(...A....O..
 401e00 0029d075 15410fb6 5701b84b 00000029  .).u.A..W..K...)
 401e10 d0750741 0fb64702 f7d885c0 0f95c00f  .u.A..G.........
 401e20 b6c0f7d8 488b8c24 58a00000 6448330c  ....H..$X...dH3.
 401e30 25280000 000f840a 010000e9 00010000  %(..............
 401e40 48b84572 726f723a 20524989 0748b865  H.Error: RI..H.e
 401e50 73756c74 20737449 89470848 b872696e  sult stI.G.H.rin
 401e60 6720636f 6e498947 1048b874 61696e73  g conI.G.H.tains
 401e70 20616e49 89471848 b820696c 6c656761   anI.G.H. illega
 401e80 6c498947 2048b820 6f722075 6e707249  lI.G H. or unprI
 401e90 89472848 b8696e74 61626c65 20498947  .G(H.intable I.G
 401ea0 3048b863 68617261 63746549 89473866  0H.characteI.G8f
 401eb0 41c74740 722e41c6 47420044 89e7e85d  A.G@r.A.GB.D...]
 401ec0 ecffffb8 ffffffff e957ffff ff488d9c  .........W...H..
 401ed0 24502000 00488d84 24504000 0050ff74  $P ..H..$P@..P.t
 401ee0 24204c8b 4c24204c 8b442418 b9b02640  $ L.L$ L.D$...&@
 401ef0 00ba0020 0000be01 00000048 89dfb800  ... .......H....
 401f00 000000e8 28edffff b8000000 0048c7c1  ....(........H..
 401f10 ffffffff 4889dff2 ae4889c8 48f7d04c  ....H....H..H..L
 401f20 8d68ff48 83c4104c 89eb488d ac245020  .h.H...L..H..$P
 401f30 00004d85 ed0f85be fbffffe9 47fcffff  ..M.........G...
 401f40 e8bbebff ff4881c4 68a00000 5b5d415c  .....H..h...[]A\
 401f50 415d415e 415fc385 ff742253 89fbbe3b  A]A^A_...t"S...;
 401f60 164000bf 0e000000 e8f3ebff ff85dbbf  .@..............
 401f70 00000000 0f49fbe8 94ebffff 5bf3c355  .....I......[..U
 401f80 534883ec 284889fd 64488b04 25280000  SH..(H..dH..%(..
 401f90 00488944 241831c0 be010000 00bf0d00  .H.D$.1.........
 401fa0 0000e8b9 ebffffbe 01000000 bf1d0000  ................
 401fb0 00e8aaeb ffffbe01 000000bf 1d000000  ................
 401fc0 e89bebff ffba0000 0000be01 000000bf  ................
 401fd0 02000000 e867ecff ff85c079 4f48b845  .....g.....yOH.E
 401fe0 72726f72 3a204348 89450048 b86c6965  rror: CH.E.H.lie
 401ff0 6e742075 6e488945 0848b861 626c6520  nt unH.E.H.able
 402000 746f2048 89451048 b8637265 61746520  to H.E.H.create
 402010 73488945 18c74520 6f636b65 66c74524  sH.E..E ockef.E$
 402020 7400b8ff ffffffe9 0c010000 89c3bf40  t..............@
 402030 274000e8 38ebffff 4885c075 6848b845  '@..8...H..uhH.E
 402040 72726f72 3a204448 89450048 b84e5320  rror: DH.E.H.NS
 402050 69732075 6e488945 0848b861 626c6520  is unH.E.H.able
 402060 746f2048 89451048 b8726573 6f6c7665  to H.E.H.resolve
 402070 20488945 1848b873 65727665 72206148   H.E.H.server aH
 402080 894520c7 45286464 726566c7 452c7373  .E .E(ddref.E,ss
 402090 c6452e00 89dfe885 eaffffb8 ffffffff  .E..............
 4020a0 e9930000 0048c704 24000000 0048c744  .....H..$....H.D
 4020b0 24080000 000066c7 04240200 48635014  $.....f..$..HcP.
 4020c0 488b4018 488d7c24 04b90c00 0000488b  H.@.H.|$......H.
 4020d0 30e8aaea ffff66c7 4424023b 6eba1000  0.....f.D$.;n...
 4020e0 00004889 e689dfe8 04ebffff 85c07932  ..H...........y2
 4020f0 41b84027 4000b900 27400048 c7c2ffff  A.@'@...'@.H....
 402100 ffffbe01 00000048 89efb800 000000e8  .......H........
 402110 1cebffff 89dfe805 eaffffb8 ffffffff  ................
 402120 eb1689df e8f7e9ff ff66c745 004f4bc6  .........f.E.OK.
 402130 450200b8 00000000 488b4c24 18644833  E.......H.L$.dH3
 402140 0c252800 00007405 e8b3e9ff ff4883c4  .%(...t......H..
 402150 285b5dc3 534889cb 85d27427 4889f2be  ([].SH....t'H...
 402160 58274000 bf010000 00b80000 0000e84d  X'@............M
 402170 eaffff66 c7034f4b c6430200 b8000000  ...f..OK.C......
 402180 00eb4348 85ff7430 803f0074 2b4883ec  ..CH..t0.?.t+H..
 402190 08514989 f141b86f 27400048 89f9ba77  .QI..A.o'@.H...w
 4021a0 274000be 6e3b0000 bf402740 00e8a9f5  '@..n;...@'@....
 4021b0 ffff4883 c410eb0e 66c7034f 4bc64302  ..H.....f..OK.C.
 4021c0 00b80000 00005bc3 0f1f8400 00000000  ......[.........
 4021d0 41574156 4189ff41 5541544c 8d252e0c  AWAVA..AUATL.%..
 4021e0 20005548 8d2d2e0c 20005349 89f64989   .UH.-.. .SI..I.
 4021f0 d54c29e5 4883ec08 48c1fd03 e87fe8ff  .L).H...H.......
 402200 ff4885ed 742031db 0f1f8400 00000000  .H..t 1.........
 402210 4c89ea4c 89f64489 ff41ff14 dc4883c3  L..L..D..A...H..
 402220 014839eb 75ea4883 c4085b5d 415c415d  .H9.u.H...[]A\A]
 402230 415e415f c390662e 0f1f8400 00000000  A^A_..f.........
 402240 f3c3                                 ..
Contents of section .fini:
 402244 4883ec08 4883c408 c3                 H...H....
Contents of section .rodata:
 402260 01000200 72002573 3a204572 726f723a  ....r.%s: Error:
 402270 20436f75 6c646e27 74206f70 656e2025   Couldn't open %
 402280 730a0055 73616765 3a202573 205b3c69  s..Usage: %s [<i
 402290 6e707574 5f66696c 653e5d0a 00546861  nput_file>]..Tha
 4022a0 74277320 6e756d62 65722032 2e20204b  t's number 2.  K
 4022b0 65657020 676f696e 67210048 616c6677  eep going!.Halfw
 4022c0 61792074 68657265 2100476f 6f642077  ay there!.Good w
 4022d0 6f726b21 20204f6e 20746f20 74686520  ork!  On to the
 4022e0 6e657874 2e2e2e00 57656c63 6f6d6520  next....Welcome
 4022f0 746f206d 79206669 656e6469 7368206c  to my fiendish l
 402300 6974746c 6520626f 6d622e20 596f7520  ittle bomb. You
 402310 68617665 20362070 68617365 73207769  have 6 phases wi
 402320 74680000 00000000 77686963 6820746f  th......which to
 402330 20626c6f 7720796f 75727365 6c662075   blow yourself u
 402340 702e2048 61766520 61206e69 63652064  p. Have a nice d
 402350 61792100 00000000 50686173 65203120  ay!.....Phase 1
 402360 64656675 7365642e 20486f77 2061626f  defused. How abo
 402370 75742074 6865206e 65787420 6f6e653f  ut the next one?
 402380 00000000 00000000 536f2079 6f752067  ........So you g
 402390 6f742074 68617420 6f6e652e 20205472  ot that one.  Tr
 4023a0 79207468 6973206f 6e652e00 00000000  y this one......
 4023b0 4920616d 20746865 206d6179 6f722e20  I am the mayor.
 4023c0 49206361 6e20646f 20616e79 7468696e  I can do anythin
 4023d0 67204920 77616e74 2e000000 00000000  g I want........
 4023e0 576f7721 20596f75 27766520 64656675  Wow! You've defu
 4023f0 73656420 74686520 73656372 65742073  sed the secret s
 402400 74616765 21000000 00000000 00000000  tage!...........
 402410 00000000 00000000 00000000 00000000  ................
 402420 510f4000 00000000 580f4000 00000000  Q.@.....X.@.....
 402430 640f4000 00000000 700f4000 00000000  d.@.....p.@.....
 402440 7c0f4000 00000000 880f4000 00000000  |.@.......@.....
 402450 940f4000 00000000 a00f4000 00000000  ..@.......@.....
 402460 02000000 0a000000 06000000 01000000  ................
 402470 0c000000 10000000 09000000 03000000  ................
 402480 04000000 07000000 0e000000 05000000  ................
 402490 0b000000 08000000 0f000000 0d000000  ................
 4024a0 536f2079 6f752074 68696e6b 20796f75  So you think you
 4024b0 2063616e 2073746f 70207468 6520626f   can stop the bo
 4024c0 6d622077 69746820 6374726c 2d632c20  mb with ctrl-c,
 4024d0 646f2079 6f753f00 43757273 65732c20  do you?.Curses,
 4024e0 796f7527 76652066 6f756e64 20746865  you've found the
 4024f0 20736563 72657420 70686173 65210000   secret phase!..
 402500 42757420 66696e64 696e6720 69742061  But finding it a
 402510 6e642073 6f6c7669 6e672069 74206172  nd solving it ar
 402520 65207175 69746520 64696666 6572656e  e quite differen
 402530 742e2e2e 00000000 436f6e67 72617475  t.......Congratu
 402540 6c617469 6f6e7321 20596f75 27766520  lations! You've
 402550 64656675 73656420 74686520 626f6d62  defused the bomb
 402560 21005765 6c6c2e2e 2e004f4b 2e203a2d  !.Well....OK. :-
 402570 2900496e 76616c69 64207068 61736525  ).Invalid phase%
 402580 730a000a 424f4f4d 21212100 54686520  s...BOOM!!!.The
 402590 626f6d62 20686173 20626c6f 776e2075  bomb has blown u
 4025a0 702e0025 64202564 20256420 25642025  p..%d %d %d %d %
 4025b0 64202564 00457272 6f723a20 5072656d  d %d.Error: Prem
 4025c0 61747572 6520454f 46206f6e 20737464  ature EOF on std
 4025d0 696e0047 52414445 5f424f4d 42004572  in.GRADE_BOMB.Er
 4025e0 726f723a 20496e70 7574206c 696e6520  ror: Input line
 4025f0 746f6f20 6c6f6e67 00256420 25642025  too long.%d %d %
 402600 73004472 4576696c 00677265 61747768  s.DrEvil.greatwh
 402610 6974652e 6963732e 63732e63 6d752e65  ite.ics.cs.cmu.e
 402620 64750061 6e67656c 73686172 6b2e6963  du.angelshark.ic
 402630 732e6373 2e636d75 2e656475 006d616b  s.cs.cmu.edu.mak
 402640 6f736861 726b2e69 63732e63 732e636d  oshark.ics.cs.cm
 402650 752e6564 75000000 50726f67 72616d20  u.edu...Program
 402660 74696d65 64206f75 74206166 74657220  timed out after
 402670 25642073 65636f6e 64730a00 00000000  %d seconds......
 402680 4572726f 723a2048 54545020 72657175  Error: HTTP requ
 402690 65737420 6661696c 65642077 69746820  est failed with
 4026a0 6572726f 72202564 3a202573 00000000  error %d: %s....
 4026b0 47455420 2f25732f 7375626d 6974722e  GET /%s/submitr.
 4026c0 706c2f3f 75736572 69643d25 73266c61  pl/?userid=%s&la
 4026d0 623d2573 26726573 756c743d 25732673  b=%s&result=%s&s
 4026e0 75626d69 743d7375 626d6974 20485454  ubmit=submit HTT
 4026f0 502f312e 300d0a0d 0a000000 00000000  P/1.0...........
 402700 4572726f 723a2055 6e61626c 6520746f  Error: Unable to
 402710 20636f6e 6e656374 20746f20 73657276   connect to serv
 402720 65722025 73000000 25252530 32580025  er %s...%%%02X.%
 402730 73202564 20255b61 2d7a412d 7a205d00  s %d %[a-zA-z ].
 402740 6368616e 67656d65 2e696373 2e63732e  changeme.ics.cs.
 402750 636d752e 65647500 0a415554 4f524553  cmu.edu..AUTORES
 402760 554c545f 53545249 4e473d25 730a0062  ULT_STRING=%s..b
 402770 6f6d626c 61620063 73617070 00        omblab.csapp.
Contents of section .eh_frame_hdr:
 402780 011b033b 0c010000 20000000 20e3ffff  ...;.... ... ...
 402790 58010000 e0e4ffff 28010000 d6e5ffff  X.......(.......
 4027a0 80010000 0de7ffff a0010000 29e7ffff  ............)...
 4027b0 b8010000 91e7ffff e0010000 61e8ffff  ............a...
 4027c0 f8010000 9ce8ffff 38020000 09e9ffff  ........8.......
 4027d0 50020000 4ae9ffff 70020000 78eaffff  P...J...p...x...
 4027e0 b8020000 b6eaffff d0020000 07ebffff  ................
 4027f0 f0020000 5debffff 08030000 82ebffff  ....]...........
 402800 20030000 a0ebffff 38030000 07ecffff   .......8.......
 402810 68030000 1fecffff 80030000 21ecffff  h...........!...
 402820 98030000 5eecffff c0030000 9fecffff  ....^...........
 402830 e0030000 c1ecffff f8030000 00edffff  ................
 402840 18040000 26eeffff 38040000 bbeeffff  ....&...8.......
 402850 58040000 e9eeffff 70040000 dbefffff  X.......p.......
 402860 b0040000 d7f7ffff 10050000 fff7ffff  ................
 402870 30050000 d4f9ffff 60050000 50faffff  0.......`...P...
 402880 88050000 c0faffff d0050000           ............
Contents of section .eh_frame:
 402890 14000000 00000000 017a5200 01781001  .........zR..x..
 4028a0 1b0c0708 90010710 14000000 1c000000  ................
 4028b0 b0e3ffff 2a000000 00000000 00000000  ....*...........
 4028c0 14000000 00000000 017a5200 01781001  .........zR..x..
 4028d0 1b0c0708 90010000 24000000 1c000000  ........$.......
 4028e0 c0e1ffff b0010000 000e1046 0e184a0f  ...........F..J.
 4028f0 0b770880 003f1a3b 2a332422 00000000  .w...?.;*3$"....
 402900 1c000000 44000000 4ee4ffff 37010000  ....D...N...7...
 402910 00410e10 83020335 010e0800 00000000  .A.....5........
 402920 14000000 64000000 65e5ffff 1c000000  ....d...e.......
 402930 00440e10 570e0800 24000000 7c000000  .D..W...$...|...
 402940 69e5ffff 68000000 00410e10 8602410e  i...h....A....A.
 402950 18830344 0e40025f 0e18410e 10410e08  ...D.@._..A..A..
 402960 14000000 a4000000 a9e5ffff d0000000  ................
 402970 00440e20 02cb0e08 3c000000 bc000000  .D. ....<.......
 402980 61e6ffff 3b000000 004d0e10 8c02410e  a...;....M....A.
 402990 18860341 0e208304 600e08c3 c6cc460e  ...A. ..`.....F.
 4029a0 20830486 038c0241 c30e1841 c60e1042   ......A...A...B
 4029b0 cc0e0800 00000000 14000000 fc000000  ................
 4029c0 5ce6ffff 6d000000 00440e20 02680e08  \...m....D. .h..
 4029d0 1c000000 14010000 b1e6ffff 41000000  ............A...
 4029e0 00410e10 83027f0e 08000000 00000000  .A..............
 4029f0 44000000 34010000 d2e6ffff 2e010000  D...4...........
 402a00 00420e10 8e02420e 188d0342 0e208c04  .B....B....B. ..
 402a10 410e2886 05410e30 8306440e 90010319  A.(..A.0..D.....
 402a20 010e3041 0e28410e 20420e18 420e1042  ..0A.(A. B..B..B
 402a30 0e080000 00000000 14000000 7c010000  ............|...
 402a40 b8e7ffff 3e000000 00440e10 790e0800  ....>....D..y...
 402a50 1c000000 94010000 dee7ffff 51000000  ............Q...
 402a60 00410e10 8302024f 0e080000 00000000  .A.....O........
 402a70 14000000 b4010000 0fe8ffff 56000000  ............V...
 402a80 00440e10 00000000 14000000 cc010000  .D..............
 402a90 4de8ffff 25000000 00440e10 00000000  M...%....D......
 402aa0 14000000 e4010000 5ae8ffff 1e000000  ........Z.......
 402ab0 00000000 00000000 2c000000 fc010000  ........,.......
 402ac0 60e8ffff 67000000 00420e10 8c02410e  `...g....B....A.
 402ad0 18860341 0e208304 025f0e18 410e1042  ...A. ..._..A..B
 402ae0 0e080000 00000000 14000000 2c020000  ............,...
 402af0 97e8ffff 18000000 00440e10 530e0800  .........D..S...
 402b00 14000000 44020000 97e8ffff 02000000  ....D...........
 402b10 00000000 00000000 24000000 5c020000  ........$...\...
 402b20 81e8ffff 3d000000 00410e10 8602410e  ....=....A....A.
 402b30 18830344 0e20740e 18410e10 410e0800  ...D. t..A..A...
 402b40 1c000000 84020000 96e8ffff 41000000  ............A...
 402b50 00410e10 83027f0e 08000000 00000000  .A..............
 402b60 14000000 a4020000 b7e8ffff 22000000  ............"...
 402b70 00440e10 00000000 1c000000 bc020000  .D..............
 402b80 c1e8ffff 3f000000 00440e10 4c0e1845  ....?....D..L..E
 402b90 0e205b0e 104e0e08 1c000000 dc020000  . [..N..........
 402ba0 e0e8ffff 26010000 00440e10 0321010e  ....&....D...!..
 402bb0 08000000 00000000 1c000000 fc020000  ................
 402bc0 e6e9ffff 95000000 00440e80 0102900e  .........D......
 402bd0 08000000 00000000 14000000 1c030000  ................
 402be0 5beaffff 2e000000 00440e10 00000000  [........D......
 402bf0 3c000000 34030000 71eaffff f2000000  <...4...q.......
 402c00 00420e10 8e02420e 188d0342 0e208c04  .B....B....B. ..
 402c10 410e2886 05410e30 8306440e 4002dd0e  A.(..A.0..D.@...
 402c20 30410e28 410e2042 0e18420e 10420e08  0A.(A. B..B..B..
 402c30 5c000000 74030000 23ebffff fc070000  \...t...#.......
 402c40 00420e10 8f02420e 188e0342 0e208d04  .B....B....B. ..
 402c50 420e288c 05410e30 8606410e 38830747  B.(..A.0..A.8..G
 402c60 0ea0c102 0372070e a8c10244 0eb0c102  .....r.....D....
 402c70 02450ea0 c102650e 38410e30 410e2842  .E....e.8A.0A.(B
 402c80 0e20420e 18420e10 420e0800 00000000  . B..B..B.......
 402c90 1c000000 d4030000 bff2ffff 28000000  ............(...
 402ca0 00450e10 830261c3 0e080000 00000000  .E....a.........
 402cb0 2c000000 f4030000 c7f2ffff d5010000  ,...............
 402cc0 00410e10 8602410e 18830344 0e4003cc  .A....A....D.@..
 402cd0 010e1841 0e10410e 08000000 00000000  ...A..A.........
 402ce0 24000000 24040000 6cf4ffff 74000000  $...$...l...t...
 402cf0 00410e10 83027c0e 18410e20 640e1051  .A....|..A. d..Q
 402d00 0e080000 00000000 44000000 4c040000  ........D...L...
 402d10 c0f4ffff 65000000 00420e10 8f02420e  ....e....B....B.
 402d20 188e0345 0e208d04 420e288c 05480e30  ...E. ..B.(..H.0
 402d30 8606480e 3883074d 0e40720e 38410e30  ..H.8..M.@r.8A.0
 402d40 410e2842 0e20420e 18420e10 420e0800  A.(B. B..B..B...
 402d50 14000000 94040000 e8f4ffff 02000000  ................
 402d60 00000000 00000000 00000000           ............
Contents of section .init_array:
 602e10 300d4000 00000000                    0.@.....
Contents of section .fini_array:
 602e18 100d4000 00000000                    ..@.....
Contents of section .jcr:
 602e20 00000000 00000000                    ........
Contents of section .dynamic:
 602e28 01000000 00000000 01000000 00000000  ................
 602e38 0c000000 00000000 800a4000 00000000  ..........@.....
 602e48 0d000000 00000000 44224000 00000000  ........D"@.....
 602e58 19000000 00000000 102e6000 00000000  ..........`.....
 602e68 1b000000 00000000 08000000 00000000  ................
 602e78 1a000000 00000000 182e6000 00000000  ..........`.....
 602e88 1c000000 00000000 08000000 00000000  ................
 602e98 f5feff6f 00000000 98024000 00000000  ...o......@.....
 602ea8 05000000 00000000 b0054000 00000000  ..........@.....
 602eb8 06000000 00000000 c8024000 00000000  ..........@.....
 602ec8 0a000000 00000000 60010000 00000000  ........`.......
 602ed8 0b000000 00000000 18000000 00000000  ................
 602ee8 15000000 00000000 00000000 00000000  ................
 602ef8 03000000 00000000 00306000 00000000  .........0`.....
 602f08 02000000 00000000 70020000 00000000  ........p.......
 602f18 14000000 00000000 07000000 00000000  ................
 602f28 17000000 00000000 10084000 00000000  ..........@.....
 602f38 07000000 00000000 b0074000 00000000  ..........@.....
 602f48 08000000 00000000 60000000 00000000  ........`.......
 602f58 09000000 00000000 18000000 00000000  ................
 602f68 feffff6f 00000000 50074000 00000000  ...o....P.@.....
 602f78 ffffff6f 00000000 01000000 00000000  ...o............
 602f88 f0ffff6f 00000000 10074000 00000000  ...o......@.....
 602f98 00000000 00000000 00000000 00000000  ................
 602fa8 00000000 00000000 00000000 00000000  ................
 602fb8 00000000 00000000 00000000 00000000  ................
 602fc8 00000000 00000000 00000000 00000000  ................
 602fd8 00000000 00000000 00000000 00000000  ................
 602fe8 00000000 00000000 00000000 00000000  ................
Contents of section .got:
 602ff8 00000000 00000000                    ........
Contents of section .got.plt:
 603000 282e6000 00000000 00000000 00000000  (.`.............
 603010 00000000 00000000 b60a4000 00000000  ..........@.....
 603020 c60a4000 00000000 d60a4000 00000000  ..@.......@.....
 603030 e60a4000 00000000 f60a4000 00000000  ..@.......@.....
 603040 060b4000 00000000 160b4000 00000000  ..@.......@.....
 603050 260b4000 00000000 360b4000 00000000  &.@.....6.@.....
 603060 460b4000 00000000 560b4000 00000000  F.@.....V.@.....
 603070 660b4000 00000000 760b4000 00000000  f.@.....v.@.....
 603080 860b4000 00000000 960b4000 00000000  ..@.......@.....
 603090 a60b4000 00000000 b60b4000 00000000  ..@.......@.....
 6030a0 c60b4000 00000000 d60b4000 00000000  ..@.......@.....
 6030b0 e60b4000 00000000 f60b4000 00000000  ..@.......@.....
 6030c0 060c4000 00000000 160c4000 00000000  ..@.......@.....
 6030d0 260c4000 00000000 360c4000 00000000  &.@.....6.@.....
 6030e0 460c4000 00000000                    F.@.....
Contents of section .data:
 603100 00000000 00000000 00000000 00000000  ................
 603110 24000000 00000000 30316000 00000000  $.......01`.....
 603120 50316000 00000000 00000000 00000000  P1`.............
 603130 08000000 00000000 b0316000 00000000  .........1`.....
 603140 70316000 00000000 00000000 00000000  p1`.............
 603150 32000000 00000000 90316000 00000000  2........1`.....
 603160 d0316000 00000000 00000000 00000000  .1`.............
 603170 16000000 00000000 90326000 00000000  .........2`.....
 603180 50326000 00000000 00000000 00000000  P2`.............
 603190 2d000000 00000000 f0316000 00000000  -........1`.....
 6031a0 b0326000 00000000 00000000 00000000  .2`.............
 6031b0 06000000 00000000 10326000 00000000  .........2`.....
 6031c0 70326000 00000000 00000000 00000000  p2`.............
 6031d0 6b000000 00000000 30326000 00000000  k.......02`.....
 6031e0 d0326000 00000000 00000000 00000000  .2`.............
 6031f0 28000000 00000000 00000000 00000000  (...............
 603200 00000000 00000000 00000000 00000000  ................
 603210 01000000 00000000 00000000 00000000  ................
 603220 00000000 00000000 00000000 00000000  ................
 603230 63000000 00000000 00000000 00000000  c...............
 603240 00000000 00000000 00000000 00000000  ................
 603250 23000000 00000000 00000000 00000000  #...............
 603260 00000000 00000000 00000000 00000000  ................
 603270 07000000 00000000 00000000 00000000  ................
 603280 00000000 00000000 00000000 00000000  ................
 603290 14000000 00000000 00000000 00000000  ................
 6032a0 00000000 00000000 00000000 00000000  ................
 6032b0 2f000000 00000000 00000000 00000000  /...............
 6032c0 00000000 00000000 00000000 00000000  ................
 6032d0 e9030000 00000000 00000000 00000000  ................
 6032e0 00000000 00000000 00000000 00000000  ................
 6032f0 d5000000 01000000 00336000 00000000  .........3`.....
 603300 60030000 02000000 10336000 00000000  `........3`.....
 603310 ad000000 03000000 20336000 00000000  ........ 3`.....
 603320 15010000 04000000 30336000 00000000  ........03`.....
 603330 bb000000 05000000 40336000 00000000  ........@3`.....
 603340 c7030000 06000000 00000000 00000000  ................
 603350 0d000000 00000000 00000000 00000000  ................
 603360 09264000 00000000 23264000 00000000  .&@.....#&@.....
 603370 3d264000 00000000 00000000 00000000  =&@.............
 603380 00000000 00000000 00000000 00000000  ................
 603390 00000000 00000000 00000000 00000000  ................
 6033a0 00000000 00000000 00000000 00000000  ................
 6033b0 00000000 00000000 00000000 00000000  ................
 6033c0 00000000 00000000 00000000 00000000  ................
 6033d0 00000000 00000000 00000000 00000000  ................
 6033e0 00000000 00000000 00000000 00000000  ................
 6033f0 00000000 00000000 00000000 00000000  ................
 603400 00000000 00000000 00000000 00000000  ................
 603410 00000000 00000000 00000000 00000000  ................
 603420 00000000 00000000 00000000 00000000  ................
 603430 00000000 00000000 00000000 00000000  ................
 603440 00000000 00000000 00000000 00000000  ................
 603450 00000000 00000000 00000000 00000000  ................
 603460 00000000 00000000 00000000 00000000  ................
 603470 00000000 00000000 00000000 00000000  ................
 603480 00000000 00000000 00000000 00000000  ................
 603490 00000000 00000000 00000000 00000000  ................
 6034a0 00000000 00000000 00000000 00000000  ................
 6034b0 00000000 00000000 00000000 00000000  ................
 6034c0 00000000 00000000 00000000 00000000  ................
 6034d0 00000000 00000000 00000000 00000000  ................
 6034e0 00000000 00000000 00000000 00000000  ................
 6034f0 00000000 00000000 00000000 00000000  ................
 603500 00000000 00000000 00000000 00000000  ................
 603510 00000000 00000000 00000000 00000000  ................
 603520 00000000 00000000 00000000 00000000  ................
 603530 00000000 00000000 00000000 00000000  ................
 603540 00000000 00000000 00000000 00000000  ................
 603550 00000000 00000000 00000000 00000000  ................
 603560 00000000 00000000 00000000 00000000  ................
 603570 00000000 00000000 00000000 00000000  ................
 603580 00000000 00000000 00000000 00000000  ................
 603590 00000000 00000000 00000000 00000000  ................
 6035a0 00000000 00000000 00000000 00000000  ................
 6035b0 00000000 00000000 00000000 00000000  ................
 6035c0 00000000 00000000 00000000 00000000  ................
 6035d0 00000000 00000000 00000000 00000000  ................
 6035e0 00000000 00000000 00000000 00000000  ................
 6035f0 00000000 00000000 00000000 00000000  ................
 603600 00000000 00000000 00000000 00000000  ................
 603610 00000000 00000000 00000000 00000000  ................
 603620 00000000 00000000 00000000 00000000  ................
 603630 00000000 00000000 00000000 00000000  ................
 603640 00000000 00000000 00000000 00000000  ................
 603650 00000000 00000000 00000000 00000000  ................
 603660 00000000 00000000 00000000 00000000  ................
 603670 00000000 00000000 00000000 00000000  ................
 603680 00000000 00000000 00000000 00000000  ................
 603690 00000000 00000000 00000000 00000000  ................
 6036a0 00000000 00000000 00000000 00000000  ................
 6036b0 00000000 00000000 00000000 00000000  ................
 6036c0 00000000 00000000 00000000 00000000  ................
 6036d0 00000000 00000000 00000000 00000000  ................
 6036e0 00000000 00000000 00000000 00000000  ................
 6036f0 00000000 00000000 00000000 00000000  ................
 603700 00000000 00000000 00000000 00000000  ................
 603710 00000000 00000000 00000000 00000000  ................
 603720 00000000 00000000 00000000 00000000  ................
 603730 00000000 00000000 00000000 00000000  ................
 603740 00000000 00000000 00000000 00000000  ................
 603750 00000000 00000000 00000000 00000000  ................
Contents of section .comment:
 0000 4743433a 20285562 756e7475 20352e34  GCC: (Ubuntu 5.4
 0010 2e302d36 7562756e 7475317e 31362e30  .0-6ubuntu1~16.0
 0020 342e3229 20352e34 2e302032 30313630  4.2) 5.4.0 20160
 0030 36303900                             609.

Disassembly of section .init:

0000000000400a80 <.init>:
  400a80:	48 83 ec 08          	sub    $0x8,%rsp
  400a84:	48 8b 05 6d 25 20 00 	mov    0x20256d(%rip),%rax        # 602ff8 <__gmon_start__@plt+0x2023a8>
  400a8b:	48 85 c0             	test   %rax,%rax
  400a8e:	74 05                	je     400a95 <getenv@plt-0x1b>
  400a90:	e8 bb 01 00 00       	callq  400c50 <__gmon_start__@plt>
  400a95:	48 83 c4 08          	add    $0x8,%rsp
  400a99:	c3                   	retq

Disassembly of section .plt:

0000000000400aa0 <getenv@plt-0x10>:
  400aa0:	ff 35 62 25 20 00    	pushq  0x202562(%rip)        # 603008 <__gmon_start__@plt+0x2023b8>
  400aa6:	ff 25 64 25 20 00    	jmpq   *0x202564(%rip)        # 603010 <__gmon_start__@plt+0x2023c0>
  400aac:	0f 1f 40 00          	nopl   0x0(%rax)

0000000000400ab0 <getenv@plt>:
  400ab0:	ff 25 62 25 20 00    	jmpq   *0x202562(%rip)        # 603018 <__gmon_start__@plt+0x2023c8>
  400ab6:	68 00 00 00 00       	pushq  $0x0
  400abb:	e9 e0 ff ff ff       	jmpq   400aa0 <getenv@plt-0x10>

0000000000400ac0 <__errno_location@plt>:
  400ac0:	ff 25 5a 25 20 00    	jmpq   *0x20255a(%rip)        # 603020 <__gmon_start__@plt+0x2023d0>
  400ac6:	68 01 00 00 00       	pushq  $0x1
  400acb:	e9 d0 ff ff ff       	jmpq   400aa0 <getenv@plt-0x10>

0000000000400ad0 <strcpy@plt>:
  400ad0:	ff 25 52 25 20 00    	jmpq   *0x202552(%rip)        # 603028 <__gmon_start__@plt+0x2023d8>
  400ad6:	68 02 00 00 00       	pushq  $0x2
  400adb:	e9 c0 ff ff ff       	jmpq   400aa0 <getenv@plt-0x10>

0000000000400ae0 <puts@plt>:
  400ae0:	ff 25 4a 25 20 00    	jmpq   *0x20254a(%rip)        # 603030 <__gmon_start__@plt+0x2023e0>
  400ae6:	68 03 00 00 00       	pushq  $0x3
  400aeb:	e9 b0 ff ff ff       	jmpq   400aa0 <getenv@plt-0x10>

0000000000400af0 <write@plt>:
  400af0:	ff 25 42 25 20 00    	jmpq   *0x202542(%rip)        # 603038 <__gmon_start__@plt+0x2023e8>
  400af6:	68 04 00 00 00       	pushq  $0x4
  400afb:	e9 a0 ff ff ff       	jmpq   400aa0 <getenv@plt-0x10>

0000000000400b00 <__stack_chk_fail@plt>:
  400b00:	ff 25 3a 25 20 00    	jmpq   *0x20253a(%rip)        # 603040 <__gmon_start__@plt+0x2023f0>
  400b06:	68 05 00 00 00       	pushq  $0x5
  400b0b:	e9 90 ff ff ff       	jmpq   400aa0 <getenv@plt-0x10>

0000000000400b10 <alarm@plt>:
  400b10:	ff 25 32 25 20 00    	jmpq   *0x202532(%rip)        # 603048 <__gmon_start__@plt+0x2023f8>
  400b16:	68 06 00 00 00       	pushq  $0x6
  400b1b:	e9 80 ff ff ff       	jmpq   400aa0 <getenv@plt-0x10>

0000000000400b20 <close@plt>:
  400b20:	ff 25 2a 25 20 00    	jmpq   *0x20252a(%rip)        # 603050 <__gmon_start__@plt+0x202400>
  400b26:	68 07 00 00 00       	pushq  $0x7
  400b2b:	e9 70 ff ff ff       	jmpq   400aa0 <getenv@plt-0x10>

0000000000400b30 <read@plt>:
  400b30:	ff 25 22 25 20 00    	jmpq   *0x202522(%rip)        # 603058 <__gmon_start__@plt+0x202408>
  400b36:	68 08 00 00 00       	pushq  $0x8
  400b3b:	e9 60 ff ff ff       	jmpq   400aa0 <getenv@plt-0x10>

0000000000400b40 <__libc_start_main@plt>:
  400b40:	ff 25 1a 25 20 00    	jmpq   *0x20251a(%rip)        # 603060 <__gmon_start__@plt+0x202410>
  400b46:	68 09 00 00 00       	pushq  $0x9
  400b4b:	e9 50 ff ff ff       	jmpq   400aa0 <getenv@plt-0x10>

0000000000400b50 <fgets@plt>:
  400b50:	ff 25 12 25 20 00    	jmpq   *0x202512(%rip)        # 603068 <__gmon_start__@plt+0x202418>
  400b56:	68 0a 00 00 00       	pushq  $0xa
  400b5b:	e9 40 ff ff ff       	jmpq   400aa0 <getenv@plt-0x10>

0000000000400b60 <signal@plt>:
  400b60:	ff 25 0a 25 20 00    	jmpq   *0x20250a(%rip)        # 603070 <__gmon_start__@plt+0x202420>
  400b66:	68 0b 00 00 00       	pushq  $0xb
  400b6b:	e9 30 ff ff ff       	jmpq   400aa0 <getenv@plt-0x10>

0000000000400b70 <gethostbyname@plt>:
  400b70:	ff 25 02 25 20 00    	jmpq   *0x202502(%rip)        # 603078 <__gmon_start__@plt+0x202428>
  400b76:	68 0c 00 00 00       	pushq  $0xc
  400b7b:	e9 20 ff ff ff       	jmpq   400aa0 <getenv@plt-0x10>

0000000000400b80 <__memmove_chk@plt>:
  400b80:	ff 25 fa 24 20 00    	jmpq   *0x2024fa(%rip)        # 603080 <__gmon_start__@plt+0x202430>
  400b86:	68 0d 00 00 00       	pushq  $0xd
  400b8b:	e9 10 ff ff ff       	jmpq   400aa0 <getenv@plt-0x10>

0000000000400b90 <strtol@plt>:
  400b90:	ff 25 f2 24 20 00    	jmpq   *0x2024f2(%rip)        # 603088 <__gmon_start__@plt+0x202438>
  400b96:	68 0e 00 00 00       	pushq  $0xe
  400b9b:	e9 00 ff ff ff       	jmpq   400aa0 <getenv@plt-0x10>

0000000000400ba0 <fflush@plt>:
  400ba0:	ff 25 ea 24 20 00    	jmpq   *0x2024ea(%rip)        # 603090 <__gmon_start__@plt+0x202440>
  400ba6:	68 0f 00 00 00       	pushq  $0xf
  400bab:	e9 f0 fe ff ff       	jmpq   400aa0 <getenv@plt-0x10>

0000000000400bb0 <__isoc99_sscanf@plt>:
  400bb0:	ff 25 e2 24 20 00    	jmpq   *0x2024e2(%rip)        # 603098 <__gmon_start__@plt+0x202448>
  400bb6:	68 10 00 00 00       	pushq  $0x10
  400bbb:	e9 e0 fe ff ff       	jmpq   400aa0 <getenv@plt-0x10>

0000000000400bc0 <__printf_chk@plt>:
  400bc0:	ff 25 da 24 20 00    	jmpq   *0x2024da(%rip)        # 6030a0 <__gmon_start__@plt+0x202450>
  400bc6:	68 11 00 00 00       	pushq  $0x11
  400bcb:	e9 d0 fe ff ff       	jmpq   400aa0 <getenv@plt-0x10>

0000000000400bd0 <fopen@plt>:
  400bd0:	ff 25 d2 24 20 00    	jmpq   *0x2024d2(%rip)        # 6030a8 <__gmon_start__@plt+0x202458>
  400bd6:	68 12 00 00 00       	pushq  $0x12
  400bdb:	e9 c0 fe ff ff       	jmpq   400aa0 <getenv@plt-0x10>

0000000000400be0 <exit@plt>:
  400be0:	ff 25 ca 24 20 00    	jmpq   *0x2024ca(%rip)        # 6030b0 <__gmon_start__@plt+0x202460>
  400be6:	68 13 00 00 00       	pushq  $0x13
  400beb:	e9 b0 fe ff ff       	jmpq   400aa0 <getenv@plt-0x10>

0000000000400bf0 <connect@plt>:
  400bf0:	ff 25 c2 24 20 00    	jmpq   *0x2024c2(%rip)        # 6030b8 <__gmon_start__@plt+0x202468>
  400bf6:	68 14 00 00 00       	pushq  $0x14
  400bfb:	e9 a0 fe ff ff       	jmpq   400aa0 <getenv@plt-0x10>

0000000000400c00 <__fprintf_chk@plt>:
  400c00:	ff 25 ba 24 20 00    	jmpq   *0x2024ba(%rip)        # 6030c0 <__gmon_start__@plt+0x202470>
  400c06:	68 15 00 00 00       	pushq  $0x15
  400c0b:	e9 90 fe ff ff       	jmpq   400aa0 <getenv@plt-0x10>

0000000000400c10 <sleep@plt>:
  400c10:	ff 25 b2 24 20 00    	jmpq   *0x2024b2(%rip)        # 6030c8 <__gmon_start__@plt+0x202478>
  400c16:	68 16 00 00 00       	pushq  $0x16
  400c1b:	e9 80 fe ff ff       	jmpq   400aa0 <getenv@plt-0x10>

0000000000400c20 <__ctype_b_loc@plt>:
  400c20:	ff 25 aa 24 20 00    	jmpq   *0x2024aa(%rip)        # 6030d0 <__gmon_start__@plt+0x202480>
  400c26:	68 17 00 00 00       	pushq  $0x17
  400c2b:	e9 70 fe ff ff       	jmpq   400aa0 <getenv@plt-0x10>

0000000000400c30 <__sprintf_chk@plt>:
  400c30:	ff 25 a2 24 20 00    	jmpq   *0x2024a2(%rip)        # 6030d8 <__gmon_start__@plt+0x202488>
  400c36:	68 18 00 00 00       	pushq  $0x18
  400c3b:	e9 60 fe ff ff       	jmpq   400aa0 <getenv@plt-0x10>

0000000000400c40 <socket@plt>:
  400c40:	ff 25 9a 24 20 00    	jmpq   *0x20249a(%rip)        # 6030e0 <__gmon_start__@plt+0x202490>
  400c46:	68 19 00 00 00       	pushq  $0x19
  400c4b:	e9 50 fe ff ff       	jmpq   400aa0 <getenv@plt-0x10>

Disassembly of section .plt.got:

0000000000400c50 <__gmon_start__@plt>:
  400c50:	ff 25 a2 23 20 00    	jmpq   *0x2023a2(%rip)        # 602ff8 <__gmon_start__@plt+0x2023a8>
  400c56:	66 90                	xchg   %ax,%ax

Disassembly of section .text:

0000000000400c60 <.text>:
  400c60:	31 ed                	xor    %ebp,%ebp
  400c62:	49 89 d1             	mov    %rdx,%r9
  400c65:	5e                   	pop    %rsi
  400c66:	48 89 e2             	mov    %rsp,%rdx
  400c69:	48 83 e4 f0          	and    $0xfffffffffffffff0,%rsp
  400c6d:	50                   	push   %rax
  400c6e:	54                   	push   %rsp
  400c6f:	49 c7 c0 40 22 40 00 	mov    $0x402240,%r8
  400c76:	48 c7 c1 d0 21 40 00 	mov    $0x4021d0,%rcx
  400c7d:	48 c7 c7 56 0d 40 00 	mov    $0x400d56,%rdi
  400c84:	e8 b7 fe ff ff       	callq  400b40 <__libc_start_main@plt>
  400c89:	f4                   	hlt
  400c8a:	66 0f 1f 44 00 00    	nopw   0x0(%rax,%rax,1)
  400c90:	b8 67 37 60 00       	mov    $0x603767,%eax
  400c95:	55                   	push   %rbp
  400c96:	48 2d 60 37 60 00    	sub    $0x603760,%rax
  400c9c:	48 83 f8 0e          	cmp    $0xe,%rax
  400ca0:	48 89 e5             	mov    %rsp,%rbp
  400ca3:	76 1b                	jbe    400cc0 <__gmon_start__@plt+0x70>
  400ca5:	b8 00 00 00 00       	mov    $0x0,%eax
  400caa:	48 85 c0             	test   %rax,%rax
  400cad:	74 11                	je     400cc0 <__gmon_start__@plt+0x70>
  400caf:	5d                   	pop    %rbp
  400cb0:	bf 60 37 60 00       	mov    $0x603760,%edi
  400cb5:	ff e0                	jmpq   *%rax
  400cb7:	66 0f 1f 84 00 00 00 	nopw   0x0(%rax,%rax,1)
  400cbe:	00 00
  400cc0:	5d                   	pop    %rbp
  400cc1:	c3                   	retq
  400cc2:	0f 1f 40 00          	nopl   0x0(%rax)
  400cc6:	66 2e 0f 1f 84 00 00 	nopw   %cs:0x0(%rax,%rax,1)
  400ccd:	00 00 00
  400cd0:	be 60 37 60 00       	mov    $0x603760,%esi
  400cd5:	55                   	push   %rbp
  400cd6:	48 81 ee 60 37 60 00 	sub    $0x603760,%rsi
  400cdd:	48 c1 fe 03          	sar    $0x3,%rsi
  400ce1:	48 89 e5             	mov    %rsp,%rbp
  400ce4:	48 89 f0             	mov    %rsi,%rax
  400ce7:	48 c1 e8 3f          	shr    $0x3f,%rax
  400ceb:	48 01 c6             	add    %rax,%rsi
  400cee:	48 d1 fe             	sar    %rsi
  400cf1:	74 15                	je     400d08 <__gmon_start__@plt+0xb8>
  400cf3:	b8 00 00 00 00       	mov    $0x0,%eax
  400cf8:	48 85 c0             	test   %rax,%rax
  400cfb:	74 0b                	je     400d08 <__gmon_start__@plt+0xb8>
  400cfd:	5d                   	pop    %rbp
  400cfe:	bf 60 37 60 00       	mov    $0x603760,%edi
  400d03:	ff e0                	jmpq   *%rax
  400d05:	0f 1f 00             	nopl   (%rax)
  400d08:	5d                   	pop    %rbp
  400d09:	c3                   	retq
  400d0a:	66 0f 1f 44 00 00    	nopw   0x0(%rax,%rax,1)
  400d10:	80 3d 71 2a 20 00 00 	cmpb   $0x0,0x202a71(%rip)        # 603788 <stderr@@GLIBC_2.2.5+0x8>
  400d17:	75 11                	jne    400d2a <__gmon_start__@plt+0xda>
  400d19:	55                   	push   %rbp
  400d1a:	48 89 e5             	mov    %rsp,%rbp
  400d1d:	e8 6e ff ff ff       	callq  400c90 <__gmon_start__@plt+0x40>
  400d22:	5d                   	pop    %rbp
  400d23:	c6 05 5e 2a 20 00 01 	movb   $0x1,0x202a5e(%rip)        # 603788 <stderr@@GLIBC_2.2.5+0x8>
  400d2a:	f3 c3                	repz retq
  400d2c:	0f 1f 40 00          	nopl   0x0(%rax)
  400d30:	bf 20 2e 60 00       	mov    $0x602e20,%edi
  400d35:	48 83 3f 00          	cmpq   $0x0,(%rdi)
  400d39:	75 05                	jne    400d40 <__gmon_start__@plt+0xf0>
  400d3b:	eb 93                	jmp    400cd0 <__gmon_start__@plt+0x80>
  400d3d:	0f 1f 00             	nopl   (%rax)
  400d40:	b8 00 00 00 00       	mov    $0x0,%eax
  400d45:	48 85 c0             	test   %rax,%rax
  400d48:	74 f1                	je     400d3b <__gmon_start__@plt+0xeb>
  400d4a:	55                   	push   %rbp
  400d4b:	48 89 e5             	mov    %rsp,%rbp
  400d4e:	ff d0                	callq  *%rax
  400d50:	5d                   	pop    %rbp
  400d51:	e9 7a ff ff ff       	jmpq   400cd0 <__gmon_start__@plt+0x80>
  400d56:	53                   	push   %rbx
  400d57:	83 ff 01             	cmp    $0x1,%edi
  400d5a:	75 10                	jne    400d6c <__gmon_start__@plt+0x11c>
  400d5c:	48 8b 05 0d 2a 20 00 	mov    0x202a0d(%rip),%rax        # 603770 <stdin@@GLIBC_2.2.5>
  400d63:	48 89 05 26 2a 20 00 	mov    %rax,0x202a26(%rip)        # 603790 <stderr@@GLIBC_2.2.5+0x10>
  400d6a:	eb 63                	jmp    400dcf <__gmon_start__@plt+0x17f>
  400d6c:	48 89 f3             	mov    %rsi,%rbx
  400d6f:	83 ff 02             	cmp    $0x2,%edi
  400d72:	75 3a                	jne    400dae <__gmon_start__@plt+0x15e>
  400d74:	48 8b 7e 08          	mov    0x8(%rsi),%rdi
  400d78:	be 64 22 40 00       	mov    $0x402264,%esi
  400d7d:	e8 4e fe ff ff       	callq  400bd0 <fopen@plt>
  400d82:	48 89 05 07 2a 20 00 	mov    %rax,0x202a07(%rip)        # 603790 <stderr@@GLIBC_2.2.5+0x10>
  400d89:	48 85 c0             	test   %rax,%rax
  400d8c:	75 41                	jne    400dcf <__gmon_start__@plt+0x17f>
  400d8e:	48 8b 4b 08          	mov    0x8(%rbx),%rcx
  400d92:	48 8b 13             	mov    (%rbx),%rdx
  400d95:	be 66 22 40 00       	mov    $0x402266,%esi
  400d9a:	bf 01 00 00 00       	mov    $0x1,%edi
  400d9f:	e8 1c fe ff ff       	callq  400bc0 <__printf_chk@plt>
  400da4:	bf 08 00 00 00       	mov    $0x8,%edi
  400da9:	e8 32 fe ff ff       	callq  400be0 <exit@plt>
  400dae:	48 8b 16             	mov    (%rsi),%rdx
  400db1:	be 83 22 40 00       	mov    $0x402283,%esi
  400db6:	bf 01 00 00 00       	mov    $0x1,%edi
  400dbb:	b8 00 00 00 00       	mov    $0x0,%eax
  400dc0:	e8 fb fd ff ff       	callq  400bc0 <__printf_chk@plt>
  400dc5:	bf 08 00 00 00       	mov    $0x8,%edi
  400dca:	e8 11 fe ff ff       	callq  400be0 <exit@plt>
  400dcf:	e8 b3 05 00 00       	callq  401387 <__gmon_start__@plt+0x737>
  400dd4:	bf e8 22 40 00       	mov    $0x4022e8,%edi
  400dd9:	e8 02 fd ff ff       	callq  400ae0 <puts@plt>
  400dde:	bf 28 23 40 00       	mov    $0x402328,%edi
  400de3:	e8 f8 fc ff ff       	callq  400ae0 <puts@plt>
  400de8:	e8 93 06 00 00       	callq  401480 <__gmon_start__@plt+0x830>
  400ded:	48 89 c7             	mov    %rax,%rdi
  400df0:	e8 98 00 00 00       	callq  400e8d <__gmon_start__@plt+0x23d>
  400df5:	e8 ac 07 00 00       	callq  4015a6 <phase_defused>
  400dfa:	bf 58 23 40 00       	mov    $0x402358,%edi
  400dff:	e8 dc fc ff ff       	callq  400ae0 <puts@plt>
  400e04:	e8 77 06 00 00       	callq  401480 <__gmon_start__@plt+0x830>
  400e09:	48 89 c7             	mov    %rax,%rdi
  400e0c:	e8 98 00 00 00       	callq  400ea9 <__gmon_start__@plt+0x259>
  400e11:	e8 90 07 00 00       	callq  4015a6 <phase_defused>
  400e16:	bf 9d 22 40 00       	mov    $0x40229d,%edi
  400e1b:	e8 c0 fc ff ff       	callq  400ae0 <puts@plt>
  400e20:	e8 5b 06 00 00       	callq  401480 <__gmon_start__@plt+0x830>
  400e25:	48 89 c7             	mov    %rax,%rdi
  400e28:	e8 e4 00 00 00       	callq  400f11 <__gmon_start__@plt+0x2c1>
  400e2d:	e8 74 07 00 00       	callq  4015a6 <phase_defused>
  400e32:	bf bb 22 40 00       	mov    $0x4022bb,%edi
  400e37:	e8 a4 fc ff ff       	callq  400ae0 <puts@plt>
  400e3c:	e8 3f 06 00 00       	callq  401480 <__gmon_start__@plt+0x830>
  400e41:	48 89 c7             	mov    %rax,%rdi
  400e44:	e8 d3 01 00 00       	callq  40101c <__gmon_start__@plt+0x3cc>
  400e49:	e8 58 07 00 00       	callq  4015a6 <phase_defused>
  400e4e:	bf 88 23 40 00       	mov    $0x402388,%edi
  400e53:	e8 88 fc ff ff       	callq  400ae0 <puts@plt>
  400e58:	e8 23 06 00 00       	callq  401480 <__gmon_start__@plt+0x830>
  400e5d:	48 89 c7             	mov    %rax,%rdi
  400e60:	e8 24 02 00 00       	callq  401089 <__gmon_start__@plt+0x439>
  400e65:	e8 3c 07 00 00       	callq  4015a6 <phase_defused>
  400e6a:	bf ca 22 40 00       	mov    $0x4022ca,%edi
  400e6f:	e8 6c fc ff ff       	callq  400ae0 <puts@plt>
  400e74:	e8 07 06 00 00       	callq  401480 <__gmon_start__@plt+0x830>
  400e79:	48 89 c7             	mov    %rax,%rdi
  400e7c:	e8 49 02 00 00       	callq  4010ca <__gmon_start__@plt+0x47a>
  400e81:	e8 20 07 00 00       	callq  4015a6 <phase_defused>
  400e86:	b8 00 00 00 00       	mov    $0x0,%eax
  400e8b:	5b                   	pop    %rbx
  400e8c:	c3                   	retq
  400e8d:	48 83 ec 08          	sub    $0x8,%rsp
  400e91:	be b0 23 40 00       	mov    $0x4023b0,%esi
  400e96:	e8 85 04 00 00       	callq  401320 <__gmon_start__@plt+0x6d0>
  400e9b:	85 c0                	test   %eax,%eax
  400e9d:	74 05                	je     400ea4 <__gmon_start__@plt+0x254>
  400e9f:	e8 7b 05 00 00       	callq  40141f <__gmon_start__@plt+0x7cf>
  400ea4:	48 83 c4 08          	add    $0x8,%rsp
  400ea8:	c3                   	retq
  400ea9:	55                   	push   %rbp
  400eaa:	53                   	push   %rbx
  400eab:	48 83 ec 28          	sub    $0x28,%rsp
  400eaf:	64 48 8b 04 25 28 00 	mov    %fs:0x28,%rax
  400eb6:	00 00
  400eb8:	48 89 44 24 18       	mov    %rax,0x18(%rsp)
  400ebd:	31 c0                	xor    %eax,%eax
  400ebf:	48 89 e6             	mov    %rsp,%rsi
  400ec2:	e8 7a 05 00 00       	callq  401441 <__gmon_start__@plt+0x7f1>
  400ec7:	83 3c 24 00          	cmpl   $0x0,(%rsp)
  400ecb:	79 05                	jns    400ed2 <__gmon_start__@plt+0x282>
  400ecd:	e8 4d 05 00 00       	callq  40141f <__gmon_start__@plt+0x7cf>
  400ed2:	48 89 e5             	mov    %rsp,%rbp
  400ed5:	bb 01 00 00 00       	mov    $0x1,%ebx
  400eda:	89 d8                	mov    %ebx,%eax
  400edc:	03 45 00             	add    0x0(%rbp),%eax
  400edf:	39 45 04             	cmp    %eax,0x4(%rbp)
  400ee2:	74 05                	je     400ee9 <__gmon_start__@plt+0x299>
  400ee4:	e8 36 05 00 00       	callq  40141f <__gmon_start__@plt+0x7cf>
  400ee9:	83 c3 01             	add    $0x1,%ebx
  400eec:	48 83 c5 04          	add    $0x4,%rbp
  400ef0:	83 fb 06             	cmp    $0x6,%ebx
  400ef3:	75 e5                	jne    400eda <__gmon_start__@plt+0x28a>
  400ef5:	48 8b 44 24 18       	mov    0x18(%rsp),%rax
  400efa:	64 48 33 04 25 28 00 	xor    %fs:0x28,%rax
  400f01:	00 00
  400f03:	74 05                	je     400f0a <__gmon_start__@plt+0x2ba>
  400f05:	e8 f6 fb ff ff       	callq  400b00 <__stack_chk_fail@plt>
  400f0a:	48 83 c4 28          	add    $0x28,%rsp
  400f0e:	5b                   	pop    %rbx
  400f0f:	5d                   	pop    %rbp
  400f10:	c3                   	retq
  400f11:	48 83 ec 18          	sub    $0x18,%rsp
  400f15:	64 48 8b 04 25 28 00 	mov    %fs:0x28,%rax
  400f1c:	00 00
  400f1e:	48 89 44 24 08       	mov    %rax,0x8(%rsp)
  400f23:	31 c0                	xor    %eax,%eax
  400f25:	48 8d 4c 24 04       	lea    0x4(%rsp),%rcx
  400f2a:	48 89 e2             	mov    %rsp,%rdx
  400f2d:	be af 25 40 00       	mov    $0x4025af,%esi
  400f32:	e8 79 fc ff ff       	callq  400bb0 <__isoc99_sscanf@plt>
  400f37:	83 f8 01             	cmp    $0x1,%eax
  400f3a:	7f 05                	jg     400f41 <__gmon_start__@plt+0x2f1>
  400f3c:	e8 de 04 00 00       	callq  40141f <__gmon_start__@plt+0x7cf>
  400f41:	83 3c 24 07          	cmpl   $0x7,(%rsp)
  400f45:	77 65                	ja     400fac <__gmon_start__@plt+0x35c>
  400f47:	8b 04 24             	mov    (%rsp),%eax
  400f4a:	ff 24 c5 20 24 40 00 	jmpq   *0x402420(,%rax,8)
  400f51:	b8 b1 03 00 00       	mov    $0x3b1,%eax
  400f56:	eb 05                	jmp    400f5d <__gmon_start__@plt+0x30d>
  400f58:	b8 00 00 00 00       	mov    $0x0,%eax
  400f5d:	2d b3 03 00 00       	sub    $0x3b3,%eax
  400f62:	eb 05                	jmp    400f69 <__gmon_start__@plt+0x319>
  400f64:	b8 00 00 00 00       	mov    $0x0,%eax
  400f69:	05 38 01 00 00       	add    $0x138,%eax
  400f6e:	eb 05                	jmp    400f75 <__gmon_start__@plt+0x325>
  400f70:	b8 00 00 00 00       	mov    $0x0,%eax
  400f75:	2d 62 03 00 00       	sub    $0x362,%eax
  400f7a:	eb 05                	jmp    400f81 <__gmon_start__@plt+0x331>
  400f7c:	b8 00 00 00 00       	mov    $0x0,%eax
  400f81:	05 62 03 00 00       	add    $0x362,%eax
  400f86:	eb 05                	jmp    400f8d <__gmon_start__@plt+0x33d>
  400f88:	b8 00 00 00 00       	mov    $0x0,%eax
  400f8d:	2d 62 03 00 00       	sub    $0x362,%eax
  400f92:	eb 05                	jmp    400f99 <__gmon_start__@plt+0x349>
  400f94:	b8 00 00 00 00       	mov    $0x0,%eax
  400f99:	05 62 03 00 00       	add    $0x362,%eax
  400f9e:	eb 05                	jmp    400fa5 <__gmon_start__@plt+0x355>
  400fa0:	b8 00 00 00 00       	mov    $0x0,%eax
  400fa5:	2d 62 03 00 00       	sub    $0x362,%eax
  400faa:	eb 0a                	jmp    400fb6 <__gmon_start__@plt+0x366>
  400fac:	e8 6e 04 00 00       	callq  40141f <__gmon_start__@plt+0x7cf>
  400fb1:	b8 00 00 00 00       	mov    $0x0,%eax
  400fb6:	83 3c 24 05          	cmpl   $0x5,(%rsp)
  400fba:	7f 06                	jg     400fc2 <__gmon_start__@plt+0x372>
  400fbc:	3b 44 24 04          	cmp    0x4(%rsp),%eax
  400fc0:	74 05                	je     400fc7 <__gmon_start__@plt+0x377>
  400fc2:	e8 58 04 00 00       	callq  40141f <__gmon_start__@plt+0x7cf>
  400fc7:	48 8b 44 24 08       	mov    0x8(%rsp),%rax
  400fcc:	64 48 33 04 25 28 00 	xor    %fs:0x28,%rax
  400fd3:	00 00
  400fd5:	74 05                	je     400fdc <__gmon_start__@plt+0x38c>
  400fd7:	e8 24 fb ff ff       	callq  400b00 <__stack_chk_fail@plt>
  400fdc:	48 83 c4 18          	add    $0x18,%rsp
  400fe0:	c3                   	retq
  400fe1:	85 ff                	test   %edi,%edi
  400fe3:	7e 2b                	jle    401010 <__gmon_start__@plt+0x3c0>
  400fe5:	89 f0                	mov    %esi,%eax
  400fe7:	83 ff 01             	cmp    $0x1,%edi
  400fea:	74 2e                	je     40101a <__gmon_start__@plt+0x3ca>
  400fec:	41 54                	push   %r12
  400fee:	55                   	push   %rbp
  400fef:	53                   	push   %rbx
  400ff0:	89 f5                	mov    %esi,%ebp
  400ff2:	89 fb                	mov    %edi,%ebx
  400ff4:	8d 7f ff             	lea    -0x1(%rdi),%edi
  400ff7:	e8 e5 ff ff ff       	callq  400fe1 <__gmon_start__@plt+0x391>
  400ffc:	44 8d 64 05 00       	lea    0x0(%rbp,%rax,1),%r12d
  401001:	8d 7b fe             	lea    -0x2(%rbx),%edi
  401004:	89 ee                	mov    %ebp,%esi
  401006:	e8 d6 ff ff ff       	callq  400fe1 <__gmon_start__@plt+0x391>
  40100b:	44 01 e0             	add    %r12d,%eax
  40100e:	eb 06                	jmp    401016 <__gmon_start__@plt+0x3c6>
  401010:	b8 00 00 00 00       	mov    $0x0,%eax
  401015:	c3                   	retq
  401016:	5b                   	pop    %rbx
  401017:	5d                   	pop    %rbp
  401018:	41 5c                	pop    %r12
  40101a:	f3 c3                	repz retq
  40101c:	48 83 ec 18          	sub    $0x18,%rsp
  401020:	64 48 8b 04 25 28 00 	mov    %fs:0x28,%rax
  401027:	00 00
  401029:	48 89 44 24 08       	mov    %rax,0x8(%rsp)
  40102e:	31 c0                	xor    %eax,%eax
  401030:	48 89 e1             	mov    %rsp,%rcx
  401033:	48 8d 54 24 04       	lea    0x4(%rsp),%rdx
  401038:	be af 25 40 00       	mov    $0x4025af,%esi
  40103d:	e8 6e fb ff ff       	callq  400bb0 <__isoc99_sscanf@plt>
  401042:	83 f8 02             	cmp    $0x2,%eax
  401045:	75 0b                	jne    401052 <__gmon_start__@plt+0x402>
  401047:	8b 04 24             	mov    (%rsp),%eax
  40104a:	83 e8 02             	sub    $0x2,%eax
  40104d:	83 f8 02             	cmp    $0x2,%eax
  401050:	76 05                	jbe    401057 <__gmon_start__@plt+0x407>
  401052:	e8 c8 03 00 00       	callq  40141f <__gmon_start__@plt+0x7cf>
  401057:	8b 34 24             	mov    (%rsp),%esi
  40105a:	bf 08 00 00 00       	mov    $0x8,%edi
  40105f:	e8 7d ff ff ff       	callq  400fe1 <__gmon_start__@plt+0x391>
  401064:	3b 44 24 04          	cmp    0x4(%rsp),%eax
  401068:	74 05                	je     40106f <__gmon_start__@plt+0x41f>
  40106a:	e8 b0 03 00 00       	callq  40141f <__gmon_start__@plt+0x7cf>
  40106f:	48 8b 44 24 08       	mov    0x8(%rsp),%rax
  401074:	64 48 33 04 25 28 00 	xor    %fs:0x28,%rax
  40107b:	00 00
  40107d:	74 05                	je     401084 <__gmon_start__@plt+0x434>
  40107f:	e8 7c fa ff ff       	callq  400b00 <__stack_chk_fail@plt>
  401084:	48 83 c4 18          	add    $0x18,%rsp
  401088:	c3                   	retq
  401089:	53                   	push   %rbx
  40108a:	48 89 fb             	mov    %rdi,%rbx
  40108d:	e8 70 02 00 00       	callq  401302 <__gmon_start__@plt+0x6b2>
  401092:	83 f8 06             	cmp    $0x6,%eax
  401095:	74 05                	je     40109c <__gmon_start__@plt+0x44c>
  401097:	e8 83 03 00 00       	callq  40141f <__gmon_start__@plt+0x7cf>
  40109c:	48 89 d8             	mov    %rbx,%rax
  40109f:	48 8d 7b 06          	lea    0x6(%rbx),%rdi
  4010a3:	b9 00 00 00 00       	mov    $0x0,%ecx
  4010a8:	0f b6 10             	movzbl (%rax),%edx
  4010ab:	83 e2 0f             	and    $0xf,%edx
  4010ae:	03 0c 95 60 24 40 00 	add    0x402460(,%rdx,4),%ecx
  4010b5:	48 83 c0 01          	add    $0x1,%rax
  4010b9:	48 39 f8             	cmp    %rdi,%rax
  4010bc:	75 ea                	jne    4010a8 <__gmon_start__@plt+0x458>
  4010be:	83 f9 36             	cmp    $0x36,%ecx
  4010c1:	74 05                	je     4010c8 <__gmon_start__@plt+0x478>
  4010c3:	e8 57 03 00 00       	callq  40141f <__gmon_start__@plt+0x7cf>
  4010c8:	5b                   	pop    %rbx
  4010c9:	c3                   	retq
  4010ca:	41 56                	push   %r14
  4010cc:	41 55                	push   %r13
  4010ce:	41 54                	push   %r12
  4010d0:	55                   	push   %rbp
  4010d1:	53                   	push   %rbx
  4010d2:	48 83 ec 60          	sub    $0x60,%rsp
  4010d6:	64 48 8b 04 25 28 00 	mov    %fs:0x28,%rax
  4010dd:	00 00
  4010df:	48 89 44 24 58       	mov    %rax,0x58(%rsp)
  4010e4:	31 c0                	xor    %eax,%eax
  4010e6:	48 89 e6             	mov    %rsp,%rsi
  4010e9:	e8 53 03 00 00       	callq  401441 <__gmon_start__@plt+0x7f1>
  4010ee:	49 89 e4             	mov    %rsp,%r12
  4010f1:	49 89 e5             	mov    %rsp,%r13
  4010f4:	41 be 00 00 00 00    	mov    $0x0,%r14d
  4010fa:	4c 89 ed             	mov    %r13,%rbp
  4010fd:	41 8b 45 00          	mov    0x0(%r13),%eax
  401101:	83 e8 01             	sub    $0x1,%eax
  401104:	83 f8 05             	cmp    $0x5,%eax
  401107:	76 05                	jbe    40110e <__gmon_start__@plt+0x4be>
  401109:	e8 11 03 00 00       	callq  40141f <__gmon_start__@plt+0x7cf>
  40110e:	41 83 c6 01          	add    $0x1,%r14d
  401112:	41 83 fe 06          	cmp    $0x6,%r14d
  401116:	74 21                	je     401139 <__gmon_start__@plt+0x4e9>
  401118:	44 89 f3             	mov    %r14d,%ebx
  40111b:	48 63 c3             	movslq %ebx,%rax
  40111e:	8b 04 84             	mov    (%rsp,%rax,4),%eax
  401121:	39 45 00             	cmp    %eax,0x0(%rbp)
  401124:	75 05                	jne    40112b <__gmon_start__@plt+0x4db>
  401126:	e8 f4 02 00 00       	callq  40141f <__gmon_start__@plt+0x7cf>
  40112b:	83 c3 01             	add    $0x1,%ebx
  40112e:	83 fb 05             	cmp    $0x5,%ebx
  401131:	7e e8                	jle    40111b <__gmon_start__@plt+0x4cb>
  401133:	49 83 c5 04          	add    $0x4,%r13
  401137:	eb c1                	jmp    4010fa <__gmon_start__@plt+0x4aa>
  401139:	48 8d 4c 24 18       	lea    0x18(%rsp),%rcx
  40113e:	ba 07 00 00 00       	mov    $0x7,%edx
  401143:	89 d0                	mov    %edx,%eax
  401145:	41 2b 04 24          	sub    (%r12),%eax
  401149:	41 89 04 24          	mov    %eax,(%r12)
  40114d:	49 83 c4 04          	add    $0x4,%r12
  401151:	4c 39 e1             	cmp    %r12,%rcx
  401154:	75 ed                	jne    401143 <__gmon_start__@plt+0x4f3>
  401156:	be 00 00 00 00       	mov    $0x0,%esi
  40115b:	eb 1a                	jmp    401177 <__gmon_start__@plt+0x527>
  40115d:	48 8b 52 08          	mov    0x8(%rdx),%rdx
  401161:	83 c0 01             	add    $0x1,%eax
  401164:	39 c8                	cmp    %ecx,%eax
  401166:	75 f5                	jne    40115d <__gmon_start__@plt+0x50d>
  401168:	48 89 54 74 20       	mov    %rdx,0x20(%rsp,%rsi,2)
  40116d:	48 83 c6 04          	add    $0x4,%rsi
  401171:	48 83 fe 18          	cmp    $0x18,%rsi
  401175:	74 14                	je     40118b <__gmon_start__@plt+0x53b>
  401177:	8b 0c 34             	mov    (%rsp,%rsi,1),%ecx
  40117a:	b8 01 00 00 00       	mov    $0x1,%eax
  40117f:	ba f0 32 60 00       	mov    $0x6032f0,%edx
  401184:	83 f9 01             	cmp    $0x1,%ecx
  401187:	7f d4                	jg     40115d <__gmon_start__@plt+0x50d>
  401189:	eb dd                	jmp    401168 <__gmon_start__@plt+0x518>
  40118b:	48 8b 5c 24 20       	mov    0x20(%rsp),%rbx
  401190:	48 8d 44 24 20       	lea    0x20(%rsp),%rax
  401195:	48 8d 74 24 48       	lea    0x48(%rsp),%rsi
  40119a:	48 89 d9             	mov    %rbx,%rcx
  40119d:	48 8b 50 08          	mov    0x8(%rax),%rdx
  4011a1:	48 89 51 08          	mov    %rdx,0x8(%rcx)
  4011a5:	48 83 c0 08          	add    $0x8,%rax
  4011a9:	48 89 d1             	mov    %rdx,%rcx
  4011ac:	48 39 c6             	cmp    %rax,%rsi
  4011af:	75 ec                	jne    40119d <__gmon_start__@plt+0x54d>
  4011b1:	48 c7 42 08 00 00 00 	movq   $0x0,0x8(%rdx)
  4011b8:	00
  4011b9:	bd 05 00 00 00       	mov    $0x5,%ebp
  4011be:	48 8b 43 08          	mov    0x8(%rbx),%rax
  4011c2:	8b 00                	mov    (%rax),%eax
  4011c4:	39 03                	cmp    %eax,(%rbx)
  4011c6:	7d 05                	jge    4011cd <__gmon_start__@plt+0x57d>
  4011c8:	e8 52 02 00 00       	callq  40141f <__gmon_start__@plt+0x7cf>
  4011cd:	48 8b 5b 08          	mov    0x8(%rbx),%rbx
  4011d1:	83 ed 01             	sub    $0x1,%ebp
  4011d4:	75 e8                	jne    4011be <__gmon_start__@plt+0x56e>
  4011d6:	48 8b 44 24 58       	mov    0x58(%rsp),%rax
  4011db:	64 48 33 04 25 28 00 	xor    %fs:0x28,%rax
  4011e2:	00 00
  4011e4:	74 05                	je     4011eb <__gmon_start__@plt+0x59b>
  4011e6:	e8 15 f9 ff ff       	callq  400b00 <__stack_chk_fail@plt>
  4011eb:	48 83 c4 60          	add    $0x60,%rsp
  4011ef:	5b                   	pop    %rbx
  4011f0:	5d                   	pop    %rbp
  4011f1:	41 5c                	pop    %r12
  4011f3:	41 5d                	pop    %r13
  4011f5:	41 5e                	pop    %r14
  4011f7:	c3                   	retq
  4011f8:	48 83 ec 08          	sub    $0x8,%rsp
  4011fc:	48 85 ff             	test   %rdi,%rdi
  4011ff:	74 2b                	je     40122c <__gmon_start__@plt+0x5dc>
  401201:	8b 17                	mov    (%rdi),%edx
  401203:	39 f2                	cmp    %esi,%edx
  401205:	7e 0d                	jle    401214 <__gmon_start__@plt+0x5c4>
  401207:	48 8b 7f 08          	mov    0x8(%rdi),%rdi
  40120b:	e8 e8 ff ff ff       	callq  4011f8 <__gmon_start__@plt+0x5a8>
  401210:	01 c0                	add    %eax,%eax
  401212:	eb 1d                	jmp    401231 <__gmon_start__@plt+0x5e1>
  401214:	b8 00 00 00 00       	mov    $0x0,%eax
  401219:	39 f2                	cmp    %esi,%edx
  40121b:	74 14                	je     401231 <__gmon_start__@plt+0x5e1>
  40121d:	48 8b 7f 10          	mov    0x10(%rdi),%rdi
  401221:	e8 d2 ff ff ff       	callq  4011f8 <__gmon_start__@plt+0x5a8>
  401226:	8d 44 00 01          	lea    0x1(%rax,%rax,1),%eax
  40122a:	eb 05                	jmp    401231 <__gmon_start__@plt+0x5e1>
  40122c:	b8 ff ff ff ff       	mov    $0xffffffff,%eax
  401231:	48 83 c4 08          	add    $0x8,%rsp
  401235:	c3                   	retq
  401236:	53                   	push   %rbx
  401237:	e8 44 02 00 00       	callq  401480 <__gmon_start__@plt+0x830>
  40123c:	ba 0a 00 00 00       	mov    $0xa,%edx
  401241:	be 00 00 00 00       	mov    $0x0,%esi
  401246:	48 89 c7             	mov    %rax,%rdi
  401249:	e8 42 f9 ff ff       	callq  400b90 <strtol@plt>
  40124e:	48 89 c3             	mov    %rax,%rbx
  401251:	8d 40 ff             	lea    -0x1(%rax),%eax
  401254:	3d e8 03 00 00       	cmp    $0x3e8,%eax
  401259:	76 05                	jbe    401260 <__gmon_start__@plt+0x610>
  40125b:	e8 bf 01 00 00       	callq  40141f <__gmon_start__@plt+0x7cf>
  401260:	89 de                	mov    %ebx,%esi
  401262:	bf 10 31 60 00       	mov    $0x603110,%edi
  401267:	e8 8c ff ff ff       	callq  4011f8 <__gmon_start__@plt+0x5a8>
  40126c:	83 f8 04             	cmp    $0x4,%eax
  40126f:	74 05                	je     401276 <__gmon_start__@plt+0x626>
  401271:	e8 a9 01 00 00       	callq  40141f <__gmon_start__@plt+0x7cf>
  401276:	bf e0 23 40 00       	mov    $0x4023e0,%edi
  40127b:	e8 60 f8 ff ff       	callq  400ae0 <puts@plt>
  401280:	e8 21 03 00 00       	callq  4015a6 <phase_defused>
  401285:	5b                   	pop    %rbx
  401286:	c3                   	retq
  401287:	48 83 ec 08          	sub    $0x8,%rsp
  40128b:	bf a0 24 40 00       	mov    $0x4024a0,%edi
  401290:	e8 4b f8 ff ff       	callq  400ae0 <puts@plt>
  401295:	bf 03 00 00 00       	mov    $0x3,%edi
  40129a:	e8 71 f9 ff ff       	callq  400c10 <sleep@plt>
  40129f:	be 62 25 40 00       	mov    $0x402562,%esi
  4012a4:	bf 01 00 00 00       	mov    $0x1,%edi
  4012a9:	b8 00 00 00 00       	mov    $0x0,%eax
  4012ae:	e8 0d f9 ff ff       	callq  400bc0 <__printf_chk@plt>
  4012b3:	48 8b 3d a6 24 20 00 	mov    0x2024a6(%rip),%rdi        # 603760 <stdout@@GLIBC_2.2.5>
  4012ba:	e8 e1 f8 ff ff       	callq  400ba0 <fflush@plt>
  4012bf:	bf 01 00 00 00       	mov    $0x1,%edi
  4012c4:	e8 47 f9 ff ff       	callq  400c10 <sleep@plt>
  4012c9:	bf 6a 25 40 00       	mov    $0x40256a,%edi
  4012ce:	e8 0d f8 ff ff       	callq  400ae0 <puts@plt>
  4012d3:	bf 10 00 00 00       	mov    $0x10,%edi
  4012d8:	e8 03 f9 ff ff       	callq  400be0 <exit@plt>
  4012dd:	48 83 ec 08          	sub    $0x8,%rsp
  4012e1:	48 89 fa             	mov    %rdi,%rdx
  4012e4:	be 72 25 40 00       	mov    $0x402572,%esi
  4012e9:	bf 01 00 00 00       	mov    $0x1,%edi
  4012ee:	b8 00 00 00 00       	mov    $0x0,%eax
  4012f3:	e8 c8 f8 ff ff       	callq  400bc0 <__printf_chk@plt>
  4012f8:	bf 08 00 00 00       	mov    $0x8,%edi
  4012fd:	e8 de f8 ff ff       	callq  400be0 <exit@plt>
  401302:	80 3f 00             	cmpb   $0x0,(%rdi)
  401305:	74 13                	je     40131a <__gmon_start__@plt+0x6ca>
  401307:	b8 00 00 00 00       	mov    $0x0,%eax
  40130c:	48 83 c7 01          	add    $0x1,%rdi
  401310:	83 c0 01             	add    $0x1,%eax
  401313:	80 3f 00             	cmpb   $0x0,(%rdi)
  401316:	75 f4                	jne    40130c <__gmon_start__@plt+0x6bc>
  401318:	f3 c3                	repz retq
  40131a:	b8 00 00 00 00       	mov    $0x0,%eax
  40131f:	c3                   	retq
  401320:	41 54                	push   %r12
  401322:	55                   	push   %rbp
  401323:	53                   	push   %rbx
  401324:	48 89 fb             	mov    %rdi,%rbx
  401327:	48 89 f5             	mov    %rsi,%rbp
  40132a:	e8 d3 ff ff ff       	callq  401302 <__gmon_start__@plt+0x6b2>
  40132f:	41 89 c4             	mov    %eax,%r12d
  401332:	48 89 ef             	mov    %rbp,%rdi
  401335:	e8 c8 ff ff ff       	callq  401302 <__gmon_start__@plt+0x6b2>
  40133a:	ba 01 00 00 00       	mov    $0x1,%edx
  40133f:	41 39 c4             	cmp    %eax,%r12d
  401342:	75 3c                	jne    401380 <__gmon_start__@plt+0x730>
  401344:	0f b6 03             	movzbl (%rbx),%eax
  401347:	84 c0                	test   %al,%al
  401349:	74 22                	je     40136d <__gmon_start__@plt+0x71d>
  40134b:	3a 45 00             	cmp    0x0(%rbp),%al
  40134e:	74 07                	je     401357 <__gmon_start__@plt+0x707>
  401350:	eb 22                	jmp    401374 <__gmon_start__@plt+0x724>
  401352:	3a 45 00             	cmp    0x0(%rbp),%al
  401355:	75 24                	jne    40137b <__gmon_start__@plt+0x72b>
  401357:	48 83 c3 01          	add    $0x1,%rbx
  40135b:	48 83 c5 01          	add    $0x1,%rbp
  40135f:	0f b6 03             	movzbl (%rbx),%eax
  401362:	84 c0                	test   %al,%al
  401364:	75 ec                	jne    401352 <__gmon_start__@plt+0x702>
  401366:	ba 00 00 00 00       	mov    $0x0,%edx
  40136b:	eb 13                	jmp    401380 <__gmon_start__@plt+0x730>
  40136d:	ba 00 00 00 00       	mov    $0x0,%edx
  401372:	eb 0c                	jmp    401380 <__gmon_start__@plt+0x730>
  401374:	ba 01 00 00 00       	mov    $0x1,%edx
  401379:	eb 05                	jmp    401380 <__gmon_start__@plt+0x730>
  40137b:	ba 01 00 00 00       	mov    $0x1,%edx
  401380:	89 d0                	mov    %edx,%eax
  401382:	5b                   	pop    %rbx
  401383:	5d                   	pop    %rbp
  401384:	41 5c                	pop    %r12
  401386:	c3                   	retq
  401387:	48 83 ec 08          	sub    $0x8,%rsp
  40138b:	be 87 12 40 00       	mov    $0x401287,%esi
  401390:	bf 02 00 00 00       	mov    $0x2,%edi
  401395:	e8 c6 f7 ff ff       	callq  400b60 <signal@plt>
  40139a:	48 83 c4 08          	add    $0x8,%rsp
  40139e:	c3                   	retq
  40139f:	f3 c3                	repz retq
  4013a1:	55                   	push   %rbp
  4013a2:	53                   	push   %rbx
  4013a3:	48 83 ec 08          	sub    $0x8,%rsp
  4013a7:	48 89 fd             	mov    %rdi,%rbp
  4013aa:	eb 17                	jmp    4013c3 <__gmon_start__@plt+0x773>
  4013ac:	e8 6f f8 ff ff       	callq  400c20 <__ctype_b_loc@plt>
  4013b1:	48 83 c5 01          	add    $0x1,%rbp
  4013b5:	48 0f be db          	movsbq %bl,%rbx
  4013b9:	48 8b 00             	mov    (%rax),%rax
  4013bc:	f6 44 58 01 20       	testb  $0x20,0x1(%rax,%rbx,2)
  4013c1:	74 0f                	je     4013d2 <__gmon_start__@plt+0x782>
  4013c3:	0f b6 5d 00          	movzbl 0x0(%rbp),%ebx
  4013c7:	84 db                	test   %bl,%bl
  4013c9:	75 e1                	jne    4013ac <__gmon_start__@plt+0x75c>
  4013cb:	b8 01 00 00 00       	mov    $0x1,%eax
  4013d0:	eb 05                	jmp    4013d7 <__gmon_start__@plt+0x787>
  4013d2:	b8 00 00 00 00       	mov    $0x0,%eax
  4013d7:	48 83 c4 08          	add    $0x8,%rsp
  4013db:	5b                   	pop    %rbx
  4013dc:	5d                   	pop    %rbp
  4013dd:	c3                   	retq
  4013de:	53                   	push   %rbx
  4013df:	48 63 05 a6 23 20 00 	movslq 0x2023a6(%rip),%rax        # 60378c <stderr@@GLIBC_2.2.5+0xc>
  4013e6:	48 8d 3c 80          	lea    (%rax,%rax,4),%rdi
  4013ea:	48 c1 e7 04          	shl    $0x4,%rdi
  4013ee:	48 81 c7 a0 37 60 00 	add    $0x6037a0,%rdi
  4013f5:	48 8b 15 94 23 20 00 	mov    0x202394(%rip),%rdx        # 603790 <stderr@@GLIBC_2.2.5+0x10>
  4013fc:	be 50 00 00 00       	mov    $0x50,%esi
  401401:	e8 4a f7 ff ff       	callq  400b50 <fgets@plt>
  401406:	48 89 c3             	mov    %rax,%rbx
  401409:	48 85 c0             	test   %rax,%rax
  40140c:	74 0c                	je     40141a <__gmon_start__@plt+0x7ca>
  40140e:	48 89 c7             	mov    %rax,%rdi
  401411:	e8 8b ff ff ff       	callq  4013a1 <__gmon_start__@plt+0x751>
  401416:	85 c0                	test   %eax,%eax
  401418:	75 c5                	jne    4013df <__gmon_start__@plt+0x78f>
  40141a:	48 89 d8             	mov    %rbx,%rax
  40141d:	5b                   	pop    %rbx
  40141e:	c3                   	retq
  40141f:	48 83 ec 08          	sub    $0x8,%rsp
  401423:	bf 83 25 40 00       	mov    $0x402583,%edi
  401428:	e8 b3 f6 ff ff       	callq  400ae0 <puts@plt>
  40142d:	bf 8c 25 40 00       	mov    $0x40258c,%edi
  401432:	e8 a9 f6 ff ff       	callq  400ae0 <puts@plt>
  401437:	bf 08 00 00 00       	mov    $0x8,%edi
  40143c:	e8 9f f7 ff ff       	callq  400be0 <exit@plt>
  401441:	48 83 ec 08          	sub    $0x8,%rsp
  401445:	48 89 f2             	mov    %rsi,%rdx
  401448:	48 8d 4e 04          	lea    0x4(%rsi),%rcx
  40144c:	48 8d 46 14          	lea    0x14(%rsi),%rax
  401450:	50                   	push   %rax
  401451:	48 8d 46 10          	lea    0x10(%rsi),%rax
  401455:	50                   	push   %rax
  401456:	4c 8d 4e 0c          	lea    0xc(%rsi),%r9
  40145a:	4c 8d 46 08          	lea    0x8(%rsi),%r8
  40145e:	be a3 25 40 00       	mov    $0x4025a3,%esi
  401463:	b8 00 00 00 00       	mov    $0x0,%eax
  401468:	e8 43 f7 ff ff       	callq  400bb0 <__isoc99_sscanf@plt>
  40146d:	48 83 c4 10          	add    $0x10,%rsp
  401471:	83 f8 05             	cmp    $0x5,%eax
  401474:	7f 05                	jg     40147b <__gmon_start__@plt+0x82b>
  401476:	e8 a4 ff ff ff       	callq  40141f <__gmon_start__@plt+0x7cf>
  40147b:	48 83 c4 08          	add    $0x8,%rsp
  40147f:	c3                   	retq
  401480:	48 83 ec 08          	sub    $0x8,%rsp
  401484:	b8 00 00 00 00       	mov    $0x0,%eax
  401489:	e8 50 ff ff ff       	callq  4013de <__gmon_start__@plt+0x78e>
  40148e:	48 85 c0             	test   %rax,%rax
  401491:	75 6e                	jne    401501 <__gmon_start__@plt+0x8b1>
  401493:	48 8b 05 d6 22 20 00 	mov    0x2022d6(%rip),%rax        # 603770 <stdin@@GLIBC_2.2.5>
  40149a:	48 39 05 ef 22 20 00 	cmp    %rax,0x2022ef(%rip)        # 603790 <stderr@@GLIBC_2.2.5+0x10>
  4014a1:	75 14                	jne    4014b7 <__gmon_start__@plt+0x867>
  4014a3:	bf b5 25 40 00       	mov    $0x4025b5,%edi
  4014a8:	e8 33 f6 ff ff       	callq  400ae0 <puts@plt>
  4014ad:	bf 08 00 00 00       	mov    $0x8,%edi
  4014b2:	e8 29 f7 ff ff       	callq  400be0 <exit@plt>
  4014b7:	bf d3 25 40 00       	mov    $0x4025d3,%edi
  4014bc:	e8 ef f5 ff ff       	callq  400ab0 <getenv@plt>
  4014c1:	48 85 c0             	test   %rax,%rax
  4014c4:	74 0a                	je     4014d0 <__gmon_start__@plt+0x880>
  4014c6:	bf 00 00 00 00       	mov    $0x0,%edi
  4014cb:	e8 10 f7 ff ff       	callq  400be0 <exit@plt>
  4014d0:	48 8b 05 99 22 20 00 	mov    0x202299(%rip),%rax        # 603770 <stdin@@GLIBC_2.2.5>
  4014d7:	48 89 05 b2 22 20 00 	mov    %rax,0x2022b2(%rip)        # 603790 <stderr@@GLIBC_2.2.5+0x10>
  4014de:	b8 00 00 00 00       	mov    $0x0,%eax
  4014e3:	e8 f6 fe ff ff       	callq  4013de <__gmon_start__@plt+0x78e>
  4014e8:	48 85 c0             	test   %rax,%rax
  4014eb:	75 14                	jne    401501 <__gmon_start__@plt+0x8b1>
  4014ed:	bf b5 25 40 00       	mov    $0x4025b5,%edi
  4014f2:	e8 e9 f5 ff ff       	callq  400ae0 <puts@plt>
  4014f7:	bf 00 00 00 00       	mov    $0x0,%edi
  4014fc:	e8 df f6 ff ff       	callq  400be0 <exit@plt>
  401501:	8b 35 85 22 20 00    	mov    0x202285(%rip),%esi        # 60378c <stderr@@GLIBC_2.2.5+0xc>
  401507:	48 63 c6             	movslq %esi,%rax
  40150a:	48 8d 14 80          	lea    (%rax,%rax,4),%rdx
  40150e:	48 c1 e2 04          	shl    $0x4,%rdx
  401512:	48 81 c2 a0 37 60 00 	add    $0x6037a0,%rdx
  401519:	b8 00 00 00 00       	mov    $0x0,%eax
  40151e:	48 c7 c1 ff ff ff ff 	mov    $0xffffffffffffffff,%rcx
  401525:	48 89 d7             	mov    %rdx,%rdi
  401528:	f2 ae                	repnz scas %es:(%rdi),%al
  40152a:	48 f7 d1             	not    %rcx
  40152d:	48 83 e9 01          	sub    $0x1,%rcx
  401531:	83 f9 4e             	cmp    $0x4e,%ecx
  401534:	7e 46                	jle    40157c <__gmon_start__@plt+0x92c>
  401536:	bf de 25 40 00       	mov    $0x4025de,%edi
  40153b:	e8 a0 f5 ff ff       	callq  400ae0 <puts@plt>
  401540:	8b 05 46 22 20 00    	mov    0x202246(%rip),%eax        # 60378c <stderr@@GLIBC_2.2.5+0xc>
  401546:	8d 50 01             	lea    0x1(%rax),%edx
  401549:	89 15 3d 22 20 00    	mov    %edx,0x20223d(%rip)        # 60378c <stderr@@GLIBC_2.2.5+0xc>
  40154f:	48 98                	cltq
  401551:	48 6b c0 50          	imul   $0x50,%rax,%rax
  401555:	48 bf 2a 2a 2a 74 72 	movabs $0x636e7572742a2a2a,%rdi
  40155c:	75 6e 63
  40155f:	48 89 b8 a0 37 60 00 	mov    %rdi,0x6037a0(%rax)
  401566:	48 bf 61 74 65 64 2a 	movabs $0x2a2a2a64657461,%rdi
  40156d:	2a 2a 00
  401570:	48 89 b8 a8 37 60 00 	mov    %rdi,0x6037a8(%rax)
  401577:	e8 a3 fe ff ff       	callq  40141f <__gmon_start__@plt+0x7cf>
  40157c:	83 e9 01             	sub    $0x1,%ecx
  40157f:	48 63 c9             	movslq %ecx,%rcx
  401582:	48 63 c6             	movslq %esi,%rax
  401585:	48 8d 04 80          	lea    (%rax,%rax,4),%rax
  401589:	48 c1 e0 04          	shl    $0x4,%rax
  40158d:	c6 84 01 a0 37 60 00 	movb   $0x0,0x6037a0(%rcx,%rax,1)
  401594:	00
  401595:	8d 46 01             	lea    0x1(%rsi),%eax
  401598:	89 05 ee 21 20 00    	mov    %eax,0x2021ee(%rip)        # 60378c <stderr@@GLIBC_2.2.5+0xc>
  40159e:	48 89 d0             	mov    %rdx,%rax
  4015a1:	48 83 c4 08          	add    $0x8,%rsp
  4015a5:	c3                   	retq
  4015a6:	48 83 ec 78          	sub    $0x78,%rsp
  4015aa:	64 48 8b 04 25 28 00 	mov    %fs:0x28,%rax
  4015b1:	00 00
  4015b3:	48 89 44 24 68       	mov    %rax,0x68(%rsp)
  4015b8:	31 c0                	xor    %eax,%eax
  4015ba:	83 3d cb 21 20 00 06 	cmpl   $0x6,0x2021cb(%rip)        # 60378c <stderr@@GLIBC_2.2.5+0xc>
  4015c1:	75 5e                	jne    401621 <__gmon_start__@plt+0x9d1>
  4015c3:	4c 8d 44 24 10       	lea    0x10(%rsp),%r8
  4015c8:	48 8d 4c 24 0c       	lea    0xc(%rsp),%rcx
  4015cd:	48 8d 54 24 08       	lea    0x8(%rsp),%rdx
  4015d2:	be f9 25 40 00       	mov    $0x4025f9,%esi
  4015d7:	bf 90 38 60 00       	mov    $0x603890,%edi
  4015dc:	e8 cf f5 ff ff       	callq  400bb0 <__isoc99_sscanf@plt>
  4015e1:	83 f8 03             	cmp    $0x3,%eax
  4015e4:	75 31                	jne    401617 <__gmon_start__@plt+0x9c7>
  4015e6:	be 02 26 40 00       	mov    $0x402602,%esi
  4015eb:	48 8d 7c 24 10       	lea    0x10(%rsp),%rdi
  4015f0:	e8 2b fd ff ff       	callq  401320 <__gmon_start__@plt+0x6d0>
  4015f5:	85 c0                	test   %eax,%eax
  4015f7:	75 1e                	jne    401617 <__gmon_start__@plt+0x9c7>
  4015f9:	bf d8 24 40 00       	mov    $0x4024d8,%edi
  4015fe:	e8 dd f4 ff ff       	callq  400ae0 <puts@plt>
  401603:	bf 00 25 40 00       	mov    $0x402500,%edi
  401608:	e8 d3 f4 ff ff       	callq  400ae0 <puts@plt>
  40160d:	b8 00 00 00 00       	mov    $0x0,%eax
  401612:	e8 1f fc ff ff       	callq  401236 <__gmon_start__@plt+0x5e6>
  401617:	bf 38 25 40 00       	mov    $0x402538,%edi
  40161c:	e8 bf f4 ff ff       	callq  400ae0 <puts@plt>
  401621:	48 8b 44 24 68       	mov    0x68(%rsp),%rax
  401626:	64 48 33 04 25 28 00 	xor    %fs:0x28,%rax
  40162d:	00 00
  40162f:	74 05                	je     401636 <__gmon_start__@plt+0x9e6>
  401631:	e8 ca f4 ff ff       	callq  400b00 <__stack_chk_fail@plt>
  401636:	48 83 c4 78          	add    $0x78,%rsp
  40163a:	c3                   	retq
  40163b:	48 83 ec 08          	sub    $0x8,%rsp
  40163f:	b9 00 00 00 00       	mov    $0x0,%ecx
  401644:	ba 58 26 40 00       	mov    $0x402658,%edx
  401649:	be 01 00 00 00       	mov    $0x1,%esi
  40164e:	48 8b 3d 2b 21 20 00 	mov    0x20212b(%rip),%rdi        # 603780 <stderr@@GLIBC_2.2.5>
  401655:	b8 00 00 00 00       	mov    $0x0,%eax
  40165a:	e8 a1 f5 ff ff       	callq  400c00 <__fprintf_chk@plt>
  40165f:	bf 01 00 00 00       	mov    $0x1,%edi
  401664:	e8 77 f5 ff ff       	callq  400be0 <exit@plt>
  401669:	41 56                	push   %r14
  40166b:	41 55                	push   %r13
  40166d:	41 54                	push   %r12
  40166f:	55                   	push   %rbp
  401670:	53                   	push   %rbx
  401671:	48 83 ec 10          	sub    $0x10,%rsp
  401675:	48 89 fb             	mov    %rdi,%rbx
  401678:	49 89 f5             	mov    %rsi,%r13
  40167b:	49 89 d6             	mov    %rdx,%r14
  40167e:	64 48 8b 04 25 28 00 	mov    %fs:0x28,%rax
  401685:	00 00
  401687:	48 89 44 24 08       	mov    %rax,0x8(%rsp)
  40168c:	31 c0                	xor    %eax,%eax
  40168e:	41 bc 01 00 00 00    	mov    $0x1,%r12d
  401694:	48 8d 6f 10          	lea    0x10(%rdi),%rbp
  401698:	48 83 fa 01          	cmp    $0x1,%rdx
  40169c:	77 2c                	ja     4016ca <__gmon_start__@plt+0xa7a>
  40169e:	eb 6d                	jmp    40170d <__gmon_start__@plt+0xabd>
  4016a0:	ba 00 20 00 00       	mov    $0x2000,%edx
  4016a5:	48 89 ee             	mov    %rbp,%rsi
  4016a8:	8b 3b                	mov    (%rbx),%edi
  4016aa:	e8 81 f4 ff ff       	callq  400b30 <read@plt>
  4016af:	89 43 04             	mov    %eax,0x4(%rbx)
  4016b2:	85 c0                	test   %eax,%eax
  4016b4:	79 0c                	jns    4016c2 <__gmon_start__@plt+0xa72>
  4016b6:	e8 05 f4 ff ff       	callq  400ac0 <__errno_location@plt>
  4016bb:	83 38 04             	cmpl   $0x4,(%rax)
  4016be:	74 0a                	je     4016ca <__gmon_start__@plt+0xa7a>
  4016c0:	eb 6c                	jmp    40172e <__gmon_start__@plt+0xade>
  4016c2:	85 c0                	test   %eax,%eax
  4016c4:	74 71                	je     401737 <__gmon_start__@plt+0xae7>
  4016c6:	48 89 6b 08          	mov    %rbp,0x8(%rbx)
  4016ca:	8b 43 04             	mov    0x4(%rbx),%eax
  4016cd:	85 c0                	test   %eax,%eax
  4016cf:	7e cf                	jle    4016a0 <__gmon_start__@plt+0xa50>
  4016d1:	48 8b 53 08          	mov    0x8(%rbx),%rdx
  4016d5:	0f b6 0a             	movzbl (%rdx),%ecx
  4016d8:	88 4c 24 07          	mov    %cl,0x7(%rsp)
  4016dc:	48 83 c2 01          	add    $0x1,%rdx
  4016e0:	48 89 53 08          	mov    %rdx,0x8(%rbx)
  4016e4:	83 e8 01             	sub    $0x1,%eax
  4016e7:	89 43 04             	mov    %eax,0x4(%rbx)
  4016ea:	49 83 c5 01          	add    $0x1,%r13
  4016ee:	41 88 4d ff          	mov    %cl,-0x1(%r13)
  4016f2:	80 f9 0a             	cmp    $0xa,%cl
  4016f5:	75 0a                	jne    401701 <__gmon_start__@plt+0xab1>
  4016f7:	eb 14                	jmp    40170d <__gmon_start__@plt+0xabd>
  4016f9:	41 83 fc 01          	cmp    $0x1,%r12d
  4016fd:	75 0e                	jne    40170d <__gmon_start__@plt+0xabd>
  4016ff:	eb 16                	jmp    401717 <__gmon_start__@plt+0xac7>
  401701:	41 83 c4 01          	add    $0x1,%r12d
  401705:	49 63 c4             	movslq %r12d,%rax
  401708:	4c 39 f0             	cmp    %r14,%rax
  40170b:	72 bd                	jb     4016ca <__gmon_start__@plt+0xa7a>
  40170d:	41 c6 45 00 00       	movb   $0x0,0x0(%r13)
  401712:	49 63 c4             	movslq %r12d,%rax
  401715:	eb 05                	jmp    40171c <__gmon_start__@plt+0xacc>
  401717:	b8 00 00 00 00       	mov    $0x0,%eax
  40171c:	48 8b 4c 24 08       	mov    0x8(%rsp),%rcx
  401721:	64 48 33 0c 25 28 00 	xor    %fs:0x28,%rcx
  401728:	00 00
  40172a:	74 22                	je     40174e <__gmon_start__@plt+0xafe>
  40172c:	eb 1b                	jmp    401749 <__gmon_start__@plt+0xaf9>
  40172e:	48 c7 c0 ff ff ff ff 	mov    $0xffffffffffffffff,%rax
  401735:	eb 05                	jmp    40173c <__gmon_start__@plt+0xaec>
  401737:	b8 00 00 00 00       	mov    $0x0,%eax
  40173c:	85 c0                	test   %eax,%eax
  40173e:	74 b9                	je     4016f9 <__gmon_start__@plt+0xaa9>
  401740:	48 c7 c0 ff ff ff ff 	mov    $0xffffffffffffffff,%rax
  401747:	eb d3                	jmp    40171c <__gmon_start__@plt+0xacc>
  401749:	e8 b2 f3 ff ff       	callq  400b00 <__stack_chk_fail@plt>
  40174e:	48 83 c4 10          	add    $0x10,%rsp
  401752:	5b                   	pop    %rbx
  401753:	5d                   	pop    %rbp
  401754:	41 5c                	pop    %r12
  401756:	41 5d                	pop    %r13
  401758:	41 5e                	pop    %r14
  40175a:	c3                   	retq
  40175b:	41 57                	push   %r15
  40175d:	41 56                	push   %r14
  40175f:	41 55                	push   %r13
  401761:	41 54                	push   %r12
  401763:	55                   	push   %rbp
  401764:	53                   	push   %rbx
  401765:	48 81 ec 68 a0 00 00 	sub    $0xa068,%rsp
  40176c:	48 89 fd             	mov    %rdi,%rbp
  40176f:	41 89 f5             	mov    %esi,%r13d
  401772:	48 89 54 24 08       	mov    %rdx,0x8(%rsp)
  401777:	48 89 4c 24 10       	mov    %rcx,0x10(%rsp)
  40177c:	4c 89 44 24 18       	mov    %r8,0x18(%rsp)
  401781:	4c 89 cb             	mov    %r9,%rbx
  401784:	4c 8b bc 24 a0 a0 00 	mov    0xa0a0(%rsp),%r15
  40178b:	00
  40178c:	64 48 8b 04 25 28 00 	mov    %fs:0x28,%rax
  401793:	00 00
  401795:	48 89 84 24 58 a0 00 	mov    %rax,0xa058(%rsp)
  40179c:	00
  40179d:	31 c0                	xor    %eax,%eax
  40179f:	c7 44 24 2c 00 00 00 	movl   $0x0,0x2c(%rsp)
  4017a6:	00
  4017a7:	ba 00 00 00 00       	mov    $0x0,%edx
  4017ac:	be 01 00 00 00       	mov    $0x1,%esi
  4017b1:	bf 02 00 00 00       	mov    $0x2,%edi
  4017b6:	e8 85 f4 ff ff       	callq  400c40 <socket@plt>
  4017bb:	85 c0                	test   %eax,%eax
  4017bd:	79 50                	jns    40180f <__gmon_start__@plt+0xbbf>
  4017bf:	48 b8 45 72 72 6f 72 	movabs $0x43203a726f727245,%rax
  4017c6:	3a 20 43
  4017c9:	49 89 07             	mov    %rax,(%r15)
  4017cc:	48 b8 6c 69 65 6e 74 	movabs $0x6e7520746e65696c,%rax
  4017d3:	20 75 6e
  4017d6:	49 89 47 08          	mov    %rax,0x8(%r15)
  4017da:	48 b8 61 62 6c 65 20 	movabs $0x206f7420656c6261,%rax
  4017e1:	74 6f 20
  4017e4:	49 89 47 10          	mov    %rax,0x10(%r15)
  4017e8:	48 b8 63 72 65 61 74 	movabs $0x7320657461657263,%rax
  4017ef:	65 20 73
  4017f2:	49 89 47 18          	mov    %rax,0x18(%r15)
  4017f6:	41 c7 47 20 6f 63 6b 	movl   $0x656b636f,0x20(%r15)
  4017fd:	65
  4017fe:	66 41 c7 47 24 74 00 	movw   $0x74,0x24(%r15)
  401805:	b8 ff ff ff ff       	mov    $0xffffffff,%eax
  40180a:	e9 15 06 00 00       	jmpq   401e24 <__gmon_start__@plt+0x11d4>
  40180f:	41 89 c4             	mov    %eax,%r12d
  401812:	48 89 ef             	mov    %rbp,%rdi
  401815:	e8 56 f3 ff ff       	callq  400b70 <gethostbyname@plt>
  40181a:	48 85 c0             	test   %rax,%rax
  40181d:	75 6b                	jne    40188a <__gmon_start__@plt+0xc3a>
  40181f:	48 b8 45 72 72 6f 72 	movabs $0x44203a726f727245,%rax
  401826:	3a 20 44
  401829:	49 89 07             	mov    %rax,(%r15)
  40182c:	48 b8 4e 53 20 69 73 	movabs $0x6e7520736920534e,%rax
  401833:	20 75 6e
  401836:	49 89 47 08          	mov    %rax,0x8(%r15)
  40183a:	48 b8 61 62 6c 65 20 	movabs $0x206f7420656c6261,%rax
  401841:	74 6f 20
  401844:	49 89 47 10          	mov    %rax,0x10(%r15)
  401848:	48 b8 72 65 73 6f 6c 	movabs $0x2065766c6f736572,%rax
  40184f:	76 65 20
  401852:	49 89 47 18          	mov    %rax,0x18(%r15)
  401856:	48 b8 73 65 72 76 65 	movabs $0x6120726576726573,%rax
  40185d:	72 20 61
  401860:	49 89 47 20          	mov    %rax,0x20(%r15)
  401864:	41 c7 47 28 64 64 72 	movl   $0x65726464,0x28(%r15)
  40186b:	65
  40186c:	66 41 c7 47 2c 73 73 	movw   $0x7373,0x2c(%r15)
  401873:	41 c6 47 2e 00       	movb   $0x0,0x2e(%r15)
  401878:	44 89 e7             	mov    %r12d,%edi
  40187b:	e8 a0 f2 ff ff       	callq  400b20 <close@plt>
  401880:	b8 ff ff ff ff       	mov    $0xffffffff,%eax
  401885:	e9 9a 05 00 00       	jmpq   401e24 <__gmon_start__@plt+0x11d4>
  40188a:	48 c7 44 24 30 00 00 	movq   $0x0,0x30(%rsp)
  401891:	00 00
  401893:	48 c7 44 24 38 00 00 	movq   $0x0,0x38(%rsp)
  40189a:	00 00
  40189c:	66 c7 44 24 30 02 00 	movw   $0x2,0x30(%rsp)
  4018a3:	48 63 50 14          	movslq 0x14(%rax),%rdx
  4018a7:	48 8b 40 18          	mov    0x18(%rax),%rax
  4018ab:	48 8d 7c 24 34       	lea    0x34(%rsp),%rdi
  4018b0:	b9 0c 00 00 00       	mov    $0xc,%ecx
  4018b5:	48 8b 30             	mov    (%rax),%rsi
  4018b8:	e8 c3 f2 ff ff       	callq  400b80 <__memmove_chk@plt>
  4018bd:	66 41 c1 cd 08       	ror    $0x8,%r13w
  4018c2:	66 44 89 6c 24 32    	mov    %r13w,0x32(%rsp)
  4018c8:	ba 10 00 00 00       	mov    $0x10,%edx
  4018cd:	48 8d 74 24 30       	lea    0x30(%rsp),%rsi
  4018d2:	44 89 e7             	mov    %r12d,%edi
  4018d5:	e8 16 f3 ff ff       	callq  400bf0 <connect@plt>
  4018da:	85 c0                	test   %eax,%eax
  4018dc:	79 5d                	jns    40193b <__gmon_start__@plt+0xceb>
  4018de:	48 b8 45 72 72 6f 72 	movabs $0x55203a726f727245,%rax
  4018e5:	3a 20 55
  4018e8:	49 89 07             	mov    %rax,(%r15)
  4018eb:	48 b8 6e 61 62 6c 65 	movabs $0x6f7420656c62616e,%rax
  4018f2:	20 74 6f
  4018f5:	49 89 47 08          	mov    %rax,0x8(%r15)
  4018f9:	48 b8 20 63 6f 6e 6e 	movabs $0x7463656e6e6f6320,%rax
  401900:	65 63 74
  401903:	49 89 47 10          	mov    %rax,0x10(%r15)
  401907:	48 b8 20 74 6f 20 74 	movabs $0x20656874206f7420,%rax
  40190e:	68 65 20
  401911:	49 89 47 18          	mov    %rax,0x18(%r15)
  401915:	41 c7 47 20 73 65 72 	movl   $0x76726573,0x20(%r15)
  40191c:	76
  40191d:	66 41 c7 47 24 65 72 	movw   $0x7265,0x24(%r15)
  401924:	41 c6 47 26 00       	movb   $0x0,0x26(%r15)
  401929:	44 89 e7             	mov    %r12d,%edi
  40192c:	e8 ef f1 ff ff       	callq  400b20 <close@plt>
  401931:	b8 ff ff ff ff       	mov    $0xffffffff,%eax
  401936:	e9 e9 04 00 00       	jmpq   401e24 <__gmon_start__@plt+0x11d4>
  40193b:	49 c7 c1 ff ff ff ff 	mov    $0xffffffffffffffff,%r9
  401942:	b8 00 00 00 00       	mov    $0x0,%eax
  401947:	4c 89 c9             	mov    %r9,%rcx
  40194a:	48 89 df             	mov    %rbx,%rdi
  40194d:	f2 ae                	repnz scas %es:(%rdi),%al
  40194f:	48 f7 d1             	not    %rcx
  401952:	48 89 ce             	mov    %rcx,%rsi
  401955:	4c 89 c9             	mov    %r9,%rcx
  401958:	48 8b 7c 24 08       	mov    0x8(%rsp),%rdi
  40195d:	f2 ae                	repnz scas %es:(%rdi),%al
  40195f:	49 89 c8             	mov    %rcx,%r8
  401962:	4c 89 c9             	mov    %r9,%rcx
  401965:	48 8b 7c 24 10       	mov    0x10(%rsp),%rdi
  40196a:	f2 ae                	repnz scas %es:(%rdi),%al
  40196c:	48 f7 d1             	not    %rcx
  40196f:	48 89 ca             	mov    %rcx,%rdx
  401972:	4c 89 c9             	mov    %r9,%rcx
  401975:	48 8b 7c 24 18       	mov    0x18(%rsp),%rdi
  40197a:	f2 ae                	repnz scas %es:(%rdi),%al
  40197c:	4c 29 c2             	sub    %r8,%rdx
  40197f:	48 29 ca             	sub    %rcx,%rdx
  401982:	48 8d 44 76 fd       	lea    -0x3(%rsi,%rsi,2),%rax
  401987:	48 8d 44 02 7b       	lea    0x7b(%rdx,%rax,1),%rax
  40198c:	48 3d 00 20 00 00    	cmp    $0x2000,%rax
  401992:	76 73                	jbe    401a07 <__gmon_start__@plt+0xdb7>
  401994:	48 b8 45 72 72 6f 72 	movabs $0x52203a726f727245,%rax
  40199b:	3a 20 52
  40199e:	49 89 07             	mov    %rax,(%r15)
  4019a1:	48 b8 65 73 75 6c 74 	movabs $0x747320746c757365,%rax
  4019a8:	20 73 74
  4019ab:	49 89 47 08          	mov    %rax,0x8(%r15)
  4019af:	48 b8 72 69 6e 67 20 	movabs $0x6f6f7420676e6972,%rax
  4019b6:	74 6f 6f
  4019b9:	49 89 47 10          	mov    %rax,0x10(%r15)
  4019bd:	48 b8 20 6c 61 72 67 	movabs $0x202e656772616c20,%rax
  4019c4:	65 2e 20
  4019c7:	49 89 47 18          	mov    %rax,0x18(%r15)
  4019cb:	48 b8 49 6e 63 72 65 	movabs $0x6573616572636e49,%rax
  4019d2:	61 73 65
  4019d5:	49 89 47 20          	mov    %rax,0x20(%r15)
  4019d9:	48 b8 20 53 55 42 4d 	movabs $0x5254494d42555320,%rax
  4019e0:	49 54 52
  4019e3:	49 89 47 28          	mov    %rax,0x28(%r15)
  4019e7:	48 b8 5f 4d 41 58 42 	movabs $0x46554258414d5f,%rax
  4019ee:	55 46 00
  4019f1:	49 89 47 30          	mov    %rax,0x30(%r15)
  4019f5:	44 89 e7             	mov    %r12d,%edi
  4019f8:	e8 23 f1 ff ff       	callq  400b20 <close@plt>
  4019fd:	b8 ff ff ff ff       	mov    $0xffffffff,%eax
  401a02:	e9 1d 04 00 00       	jmpq   401e24 <__gmon_start__@plt+0x11d4>
  401a07:	48 8d 94 24 50 40 00 	lea    0x4050(%rsp),%rdx
  401a0e:	00
  401a0f:	b9 00 04 00 00       	mov    $0x400,%ecx
  401a14:	b8 00 00 00 00       	mov    $0x0,%eax
  401a19:	48 89 d7             	mov    %rdx,%rdi
  401a1c:	f3 48 ab             	rep stos %rax,%es:(%rdi)
  401a1f:	48 c7 c1 ff ff ff ff 	mov    $0xffffffffffffffff,%rcx
  401a26:	48 89 df             	mov    %rbx,%rdi
  401a29:	f2 ae                	repnz scas %es:(%rdi),%al
  401a2b:	48 89 c8             	mov    %rcx,%rax
  401a2e:	48 f7 d0             	not    %rax
  401a31:	48 83 e8 01          	sub    $0x1,%rax
  401a35:	85 c0                	test   %eax,%eax
  401a37:	0f 84 90 04 00 00    	je     401ecd <__gmon_start__@plt+0x127d>
  401a3d:	8d 40 ff             	lea    -0x1(%rax),%eax
  401a40:	4c 8d 74 03 01       	lea    0x1(%rbx,%rax,1),%r14
  401a45:	48 89 d5             	mov    %rdx,%rbp
  401a48:	49 bd d9 ff 00 00 00 	movabs $0x2000000000ffd9,%r13
  401a4f:	00 20 00
  401a52:	44 0f b6 03          	movzbl (%rbx),%r8d
  401a56:	41 8d 40 d6          	lea    -0x2a(%r8),%eax
  401a5a:	3c 35                	cmp    $0x35,%al
  401a5c:	77 06                	ja     401a64 <__gmon_start__@plt+0xe14>
  401a5e:	49 0f a3 c5          	bt     %rax,%r13
  401a62:	72 0d                	jb     401a71 <__gmon_start__@plt+0xe21>
  401a64:	44 89 c0             	mov    %r8d,%eax
  401a67:	83 e0 df             	and    $0xffffffdf,%eax
  401a6a:	83 e8 41             	sub    $0x41,%eax
  401a6d:	3c 19                	cmp    $0x19,%al
  401a6f:	77 0a                	ja     401a7b <__gmon_start__@plt+0xe2b>
  401a71:	44 88 45 00          	mov    %r8b,0x0(%rbp)
  401a75:	48 8d 6d 01          	lea    0x1(%rbp),%rbp
  401a79:	eb 6c                	jmp    401ae7 <__gmon_start__@plt+0xe97>
  401a7b:	41 80 f8 20          	cmp    $0x20,%r8b
  401a7f:	75 0a                	jne    401a8b <__gmon_start__@plt+0xe3b>
  401a81:	c6 45 00 2b          	movb   $0x2b,0x0(%rbp)
  401a85:	48 8d 6d 01          	lea    0x1(%rbp),%rbp
  401a89:	eb 5c                	jmp    401ae7 <__gmon_start__@plt+0xe97>
  401a8b:	41 8d 40 e0          	lea    -0x20(%r8),%eax
  401a8f:	3c 5f                	cmp    $0x5f,%al
  401a91:	76 0a                	jbe    401a9d <__gmon_start__@plt+0xe4d>
  401a93:	41 80 f8 09          	cmp    $0x9,%r8b
  401a97:	0f 85 a3 03 00 00    	jne    401e40 <__gmon_start__@plt+0x11f0>
  401a9d:	45 0f b6 c0          	movzbl %r8b,%r8d
  401aa1:	b9 28 27 40 00       	mov    $0x402728,%ecx
  401aa6:	ba 08 00 00 00       	mov    $0x8,%edx
  401aab:	be 01 00 00 00       	mov    $0x1,%esi
  401ab0:	48 8d bc 24 50 80 00 	lea    0x8050(%rsp),%rdi
  401ab7:	00
  401ab8:	b8 00 00 00 00       	mov    $0x0,%eax
  401abd:	e8 6e f1 ff ff       	callq  400c30 <__sprintf_chk@plt>
  401ac2:	0f b6 84 24 50 80 00 	movzbl 0x8050(%rsp),%eax
  401ac9:	00
  401aca:	88 45 00             	mov    %al,0x0(%rbp)
  401acd:	0f b6 84 24 51 80 00 	movzbl 0x8051(%rsp),%eax
  401ad4:	00
  401ad5:	88 45 01             	mov    %al,0x1(%rbp)
  401ad8:	0f b6 84 24 52 80 00 	movzbl 0x8052(%rsp),%eax
  401adf:	00
  401ae0:	88 45 02             	mov    %al,0x2(%rbp)
  401ae3:	48 8d 6d 03          	lea    0x3(%rbp),%rbp
  401ae7:	48 83 c3 01          	add    $0x1,%rbx
  401aeb:	49 39 de             	cmp    %rbx,%r14
  401aee:	0f 85 5e ff ff ff    	jne    401a52 <__gmon_start__@plt+0xe02>
  401af4:	e9 d4 03 00 00       	jmpq   401ecd <__gmon_start__@plt+0x127d>
  401af9:	48 89 da             	mov    %rbx,%rdx
  401afc:	48 89 ee             	mov    %rbp,%rsi
  401aff:	44 89 e7             	mov    %r12d,%edi
  401b02:	e8 e9 ef ff ff       	callq  400af0 <write@plt>
  401b07:	48 85 c0             	test   %rax,%rax
  401b0a:	7f 0f                	jg     401b1b <__gmon_start__@plt+0xecb>
  401b0c:	e8 af ef ff ff       	callq  400ac0 <__errno_location@plt>
  401b11:	83 38 04             	cmpl   $0x4,(%rax)
  401b14:	75 12                	jne    401b28 <__gmon_start__@plt+0xed8>
  401b16:	b8 00 00 00 00       	mov    $0x0,%eax
  401b1b:	48 01 c5             	add    %rax,%rbp
  401b1e:	48 29 c3             	sub    %rax,%rbx
  401b21:	75 d6                	jne    401af9 <__gmon_start__@plt+0xea9>
  401b23:	4d 85 ed             	test   %r13,%r13
  401b26:	79 5f                	jns    401b87 <__gmon_start__@plt+0xf37>
  401b28:	48 b8 45 72 72 6f 72 	movabs $0x43203a726f727245,%rax
  401b2f:	3a 20 43
  401b32:	49 89 07             	mov    %rax,(%r15)
  401b35:	48 b8 6c 69 65 6e 74 	movabs $0x6e7520746e65696c,%rax
  401b3c:	20 75 6e
  401b3f:	49 89 47 08          	mov    %rax,0x8(%r15)
  401b43:	48 b8 61 62 6c 65 20 	movabs $0x206f7420656c6261,%rax
  401b4a:	74 6f 20
  401b4d:	49 89 47 10          	mov    %rax,0x10(%r15)
  401b51:	48 b8 77 72 69 74 65 	movabs $0x6f74206574697277,%rax
  401b58:	20 74 6f
  401b5b:	49 89 47 18          	mov    %rax,0x18(%r15)
  401b5f:	48 b8 20 74 68 65 20 	movabs $0x7265732065687420,%rax
  401b66:	73 65 72
  401b69:	49 89 47 20          	mov    %rax,0x20(%r15)
  401b6d:	41 c7 47 28 76 65 72 	movl   $0x726576,0x28(%r15)
  401b74:	00
  401b75:	44 89 e7             	mov    %r12d,%edi
  401b78:	e8 a3 ef ff ff       	callq  400b20 <close@plt>
  401b7d:	b8 ff ff ff ff       	mov    $0xffffffff,%eax
  401b82:	e9 9d 02 00 00       	jmpq   401e24 <__gmon_start__@plt+0x11d4>
  401b87:	44 89 64 24 40       	mov    %r12d,0x40(%rsp)
  401b8c:	c7 44 24 44 00 00 00 	movl   $0x0,0x44(%rsp)
  401b93:	00
  401b94:	48 8d 44 24 50       	lea    0x50(%rsp),%rax
  401b99:	48 89 44 24 48       	mov    %rax,0x48(%rsp)
  401b9e:	ba 00 20 00 00       	mov    $0x2000,%edx
  401ba3:	48 8d b4 24 50 20 00 	lea    0x2050(%rsp),%rsi
  401baa:	00
  401bab:	48 8d 7c 24 40       	lea    0x40(%rsp),%rdi
  401bb0:	e8 b4 fa ff ff       	callq  401669 <__gmon_start__@plt+0xa19>
  401bb5:	48 85 c0             	test   %rax,%rax
  401bb8:	7f 74                	jg     401c2e <__gmon_start__@plt+0xfde>
  401bba:	48 b8 45 72 72 6f 72 	movabs $0x43203a726f727245,%rax
  401bc1:	3a 20 43
  401bc4:	49 89 07             	mov    %rax,(%r15)
  401bc7:	48 b8 6c 69 65 6e 74 	movabs $0x6e7520746e65696c,%rax
  401bce:	20 75 6e
  401bd1:	49 89 47 08          	mov    %rax,0x8(%r15)
  401bd5:	48 b8 61 62 6c 65 20 	movabs $0x206f7420656c6261,%rax
  401bdc:	74 6f 20
  401bdf:	49 89 47 10          	mov    %rax,0x10(%r15)
  401be3:	48 b8 72 65 61 64 20 	movabs $0x7269662064616572,%rax
  401bea:	66 69 72
  401bed:	49 89 47 18          	mov    %rax,0x18(%r15)
  401bf1:	48 b8 73 74 20 68 65 	movabs $0x6564616568207473,%rax
  401bf8:	61 64 65
  401bfb:	49 89 47 20          	mov    %rax,0x20(%r15)
  401bff:	48 b8 72 20 66 72 6f 	movabs $0x73206d6f72662072,%rax
  401c06:	6d 20 73
  401c09:	49 89 47 28          	mov    %rax,0x28(%r15)
  401c0d:	41 c7 47 30 65 72 76 	movl   $0x65767265,0x30(%r15)
  401c14:	65
  401c15:	66 41 c7 47 34 72 00 	movw   $0x72,0x34(%r15)
  401c1c:	44 89 e7             	mov    %r12d,%edi
  401c1f:	e8 fc ee ff ff       	callq  400b20 <close@plt>
  401c24:	b8 ff ff ff ff       	mov    $0xffffffff,%eax
  401c29:	e9 f6 01 00 00       	jmpq   401e24 <__gmon_start__@plt+0x11d4>
  401c2e:	4c 8d 84 24 50 80 00 	lea    0x8050(%rsp),%r8
  401c35:	00
  401c36:	48 8d 4c 24 2c       	lea    0x2c(%rsp),%rcx
  401c3b:	48 8d 94 24 50 60 00 	lea    0x6050(%rsp),%rdx
  401c42:	00
  401c43:	be 2f 27 40 00       	mov    $0x40272f,%esi
  401c48:	48 8d bc 24 50 20 00 	lea    0x2050(%rsp),%rdi
  401c4f:	00
  401c50:	b8 00 00 00 00       	mov    $0x0,%eax
  401c55:	e8 56 ef ff ff       	callq  400bb0 <__isoc99_sscanf@plt>
  401c5a:	44 8b 44 24 2c       	mov    0x2c(%rsp),%r8d
  401c5f:	41 81 f8 c8 00 00 00 	cmp    $0xc8,%r8d
  401c66:	0f 84 be 00 00 00    	je     401d2a <__gmon_start__@plt+0x10da>
  401c6c:	4c 8d 8c 24 50 80 00 	lea    0x8050(%rsp),%r9
  401c73:	00
  401c74:	b9 80 26 40 00       	mov    $0x402680,%ecx
  401c79:	48 c7 c2 ff ff ff ff 	mov    $0xffffffffffffffff,%rdx
  401c80:	be 01 00 00 00       	mov    $0x1,%esi
  401c85:	4c 89 ff             	mov    %r15,%rdi
  401c88:	b8 00 00 00 00       	mov    $0x0,%eax
  401c8d:	e8 9e ef ff ff       	callq  400c30 <__sprintf_chk@plt>
  401c92:	44 89 e7             	mov    %r12d,%edi
  401c95:	e8 86 ee ff ff       	callq  400b20 <close@plt>
  401c9a:	b8 ff ff ff ff       	mov    $0xffffffff,%eax
  401c9f:	e9 80 01 00 00       	jmpq   401e24 <__gmon_start__@plt+0x11d4>
  401ca4:	ba 00 20 00 00       	mov    $0x2000,%edx
  401ca9:	48 8d b4 24 50 20 00 	lea    0x2050(%rsp),%rsi
  401cb0:	00
  401cb1:	48 8d 7c 24 40       	lea    0x40(%rsp),%rdi
  401cb6:	e8 ae f9 ff ff       	callq  401669 <__gmon_start__@plt+0xa19>
  401cbb:	48 85 c0             	test   %rax,%rax
  401cbe:	7f 6a                	jg     401d2a <__gmon_start__@plt+0x10da>
  401cc0:	48 b8 45 72 72 6f 72 	movabs $0x43203a726f727245,%rax
  401cc7:	3a 20 43
  401cca:	49 89 07             	mov    %rax,(%r15)
  401ccd:	48 b8 6c 69 65 6e 74 	movabs $0x6e7520746e65696c,%rax
  401cd4:	20 75 6e
  401cd7:	49 89 47 08          	mov    %rax,0x8(%r15)
  401cdb:	48 b8 61 62 6c 65 20 	movabs $0x206f7420656c6261,%rax
  401ce2:	74 6f 20
  401ce5:	49 89 47 10          	mov    %rax,0x10(%r15)
  401ce9:	48 b8 72 65 61 64 20 	movabs $0x6165682064616572,%rax
  401cf0:	68 65 61
  401cf3:	49 89 47 18          	mov    %rax,0x18(%r15)
  401cf7:	48 b8 64 65 72 73 20 	movabs $0x6f72662073726564,%rax
  401cfe:	66 72 6f
  401d01:	49 89 47 20          	mov    %rax,0x20(%r15)
  401d05:	48 b8 6d 20 73 65 72 	movabs $0x726576726573206d,%rax
  401d0c:	76 65 72
  401d0f:	49 89 47 28          	mov    %rax,0x28(%r15)
  401d13:	41 c6 47 30 00       	movb   $0x0,0x30(%r15)
  401d18:	44 89 e7             	mov    %r12d,%edi
  401d1b:	e8 00 ee ff ff       	callq  400b20 <close@plt>
  401d20:	b8 ff ff ff ff       	mov    $0xffffffff,%eax
  401d25:	e9 fa 00 00 00       	jmpq   401e24 <__gmon_start__@plt+0x11d4>
  401d2a:	80 bc 24 50 20 00 00 	cmpb   $0xd,0x2050(%rsp)
  401d31:	0d
  401d32:	0f 85 6c ff ff ff    	jne    401ca4 <__gmon_start__@plt+0x1054>
  401d38:	80 bc 24 51 20 00 00 	cmpb   $0xa,0x2051(%rsp)
  401d3f:	0a
  401d40:	0f 85 5e ff ff ff    	jne    401ca4 <__gmon_start__@plt+0x1054>
  401d46:	80 bc 24 52 20 00 00 	cmpb   $0x0,0x2052(%rsp)
  401d4d:	00
  401d4e:	0f 85 50 ff ff ff    	jne    401ca4 <__gmon_start__@plt+0x1054>
  401d54:	ba 00 20 00 00       	mov    $0x2000,%edx
  401d59:	48 8d b4 24 50 20 00 	lea    0x2050(%rsp),%rsi
  401d60:	00
  401d61:	48 8d 7c 24 40       	lea    0x40(%rsp),%rdi
  401d66:	e8 fe f8 ff ff       	callq  401669 <__gmon_start__@plt+0xa19>
  401d6b:	48 85 c0             	test   %rax,%rax
  401d6e:	7f 70                	jg     401de0 <__gmon_start__@plt+0x1190>
  401d70:	48 b8 45 72 72 6f 72 	movabs $0x43203a726f727245,%rax
  401d77:	3a 20 43
  401d7a:	49 89 07             	mov    %rax,(%r15)
  401d7d:	48 b8 6c 69 65 6e 74 	movabs $0x6e7520746e65696c,%rax
  401d84:	20 75 6e
  401d87:	49 89 47 08          	mov    %rax,0x8(%r15)
  401d8b:	48 b8 61 62 6c 65 20 	movabs $0x206f7420656c6261,%rax
  401d92:	74 6f 20
  401d95:	49 89 47 10          	mov    %rax,0x10(%r15)
  401d99:	48 b8 72 65 61 64 20 	movabs $0x6174732064616572,%rax
  401da0:	73 74 61
  401da3:	49 89 47 18          	mov    %rax,0x18(%r15)
  401da7:	48 b8 74 75 73 20 6d 	movabs $0x7373656d20737574,%rax
  401dae:	65 73 73
  401db1:	49 89 47 20          	mov    %rax,0x20(%r15)
  401db5:	48 b8 61 67 65 20 66 	movabs $0x6d6f726620656761,%rax
  401dbc:	72 6f 6d
  401dbf:	49 89 47 28          	mov    %rax,0x28(%r15)
  401dc3:	48 b8 20 73 65 72 76 	movabs $0x72657672657320,%rax
  401dca:	65 72 00
  401dcd:	49 89 47 30          	mov    %rax,0x30(%r15)
  401dd1:	44 89 e7             	mov    %r12d,%edi
  401dd4:	e8 47 ed ff ff       	callq  400b20 <close@plt>
  401dd9:	b8 ff ff ff ff       	mov    $0xffffffff,%eax
  401dde:	eb 44                	jmp    401e24 <__gmon_start__@plt+0x11d4>
  401de0:	48 8d b4 24 50 20 00 	lea    0x2050(%rsp),%rsi
  401de7:	00
  401de8:	4c 89 ff             	mov    %r15,%rdi
  401deb:	e8 e0 ec ff ff       	callq  400ad0 <strcpy@plt>
  401df0:	44 89 e7             	mov    %r12d,%edi
  401df3:	e8 28 ed ff ff       	callq  400b20 <close@plt>
  401df8:	41 0f b6 17          	movzbl (%r15),%edx
  401dfc:	b8 4f 00 00 00       	mov    $0x4f,%eax
  401e01:	29 d0                	sub    %edx,%eax
  401e03:	75 15                	jne    401e1a <__gmon_start__@plt+0x11ca>
  401e05:	41 0f b6 57 01       	movzbl 0x1(%r15),%edx
  401e0a:	b8 4b 00 00 00       	mov    $0x4b,%eax
  401e0f:	29 d0                	sub    %edx,%eax
  401e11:	75 07                	jne    401e1a <__gmon_start__@plt+0x11ca>
  401e13:	41 0f b6 47 02       	movzbl 0x2(%r15),%eax
  401e18:	f7 d8                	neg    %eax
  401e1a:	85 c0                	test   %eax,%eax
  401e1c:	0f 95 c0             	setne  %al
  401e1f:	0f b6 c0             	movzbl %al,%eax
  401e22:	f7 d8                	neg    %eax
  401e24:	48 8b 8c 24 58 a0 00 	mov    0xa058(%rsp),%rcx
  401e2b:	00
  401e2c:	64 48 33 0c 25 28 00 	xor    %fs:0x28,%rcx
  401e33:	00 00
  401e35:	0f 84 0a 01 00 00    	je     401f45 <__gmon_start__@plt+0x12f5>
  401e3b:	e9 00 01 00 00       	jmpq   401f40 <__gmon_start__@plt+0x12f0>
  401e40:	48 b8 45 72 72 6f 72 	movabs $0x52203a726f727245,%rax
  401e47:	3a 20 52
  401e4a:	49 89 07             	mov    %rax,(%r15)
  401e4d:	48 b8 65 73 75 6c 74 	movabs $0x747320746c757365,%rax
  401e54:	20 73 74
  401e57:	49 89 47 08          	mov    %rax,0x8(%r15)
  401e5b:	48 b8 72 69 6e 67 20 	movabs $0x6e6f6320676e6972,%rax
  401e62:	63 6f 6e
  401e65:	49 89 47 10          	mov    %rax,0x10(%r15)
  401e69:	48 b8 74 61 69 6e 73 	movabs $0x6e6120736e696174,%rax
  401e70:	20 61 6e
  401e73:	49 89 47 18          	mov    %rax,0x18(%r15)
  401e77:	48 b8 20 69 6c 6c 65 	movabs $0x6c6167656c6c6920,%rax
  401e7e:	67 61 6c
  401e81:	49 89 47 20          	mov    %rax,0x20(%r15)
  401e85:	48 b8 20 6f 72 20 75 	movabs $0x72706e7520726f20,%rax
  401e8c:	6e 70 72
  401e8f:	49 89 47 28          	mov    %rax,0x28(%r15)
  401e93:	48 b8 69 6e 74 61 62 	movabs $0x20656c6261746e69,%rax
  401e9a:	6c 65 20
  401e9d:	49 89 47 30          	mov    %rax,0x30(%r15)
  401ea1:	48 b8 63 68 61 72 61 	movabs $0x6574636172616863,%rax
  401ea8:	63 74 65
  401eab:	49 89 47 38          	mov    %rax,0x38(%r15)
  401eaf:	66 41 c7 47 40 72 2e 	movw   $0x2e72,0x40(%r15)
  401eb6:	41 c6 47 42 00       	movb   $0x0,0x42(%r15)
  401ebb:	44 89 e7             	mov    %r12d,%edi
  401ebe:	e8 5d ec ff ff       	callq  400b20 <close@plt>
  401ec3:	b8 ff ff ff ff       	mov    $0xffffffff,%eax
  401ec8:	e9 57 ff ff ff       	jmpq   401e24 <__gmon_start__@plt+0x11d4>
  401ecd:	48 8d 9c 24 50 20 00 	lea    0x2050(%rsp),%rbx
  401ed4:	00
  401ed5:	48 8d 84 24 50 40 00 	lea    0x4050(%rsp),%rax
  401edc:	00
  401edd:	50                   	push   %rax
  401ede:	ff 74 24 20          	pushq  0x20(%rsp)
  401ee2:	4c 8b 4c 24 20       	mov    0x20(%rsp),%r9
  401ee7:	4c 8b 44 24 18       	mov    0x18(%rsp),%r8
  401eec:	b9 b0 26 40 00       	mov    $0x4026b0,%ecx
  401ef1:	ba 00 20 00 00       	mov    $0x2000,%edx
  401ef6:	be 01 00 00 00       	mov    $0x1,%esi
  401efb:	48 89 df             	mov    %rbx,%rdi
  401efe:	b8 00 00 00 00       	mov    $0x0,%eax
  401f03:	e8 28 ed ff ff       	callq  400c30 <__sprintf_chk@plt>
  401f08:	b8 00 00 00 00       	mov    $0x0,%eax
  401f0d:	48 c7 c1 ff ff ff ff 	mov    $0xffffffffffffffff,%rcx
  401f14:	48 89 df             	mov    %rbx,%rdi
  401f17:	f2 ae                	repnz scas %es:(%rdi),%al
  401f19:	48 89 c8             	mov    %rcx,%rax
  401f1c:	48 f7 d0             	not    %rax
  401f1f:	4c 8d 68 ff          	lea    -0x1(%rax),%r13
  401f23:	48 83 c4 10          	add    $0x10,%rsp
  401f27:	4c 89 eb             	mov    %r13,%rbx
  401f2a:	48 8d ac 24 50 20 00 	lea    0x2050(%rsp),%rbp
  401f31:	00
  401f32:	4d 85 ed             	test   %r13,%r13
  401f35:	0f 85 be fb ff ff    	jne    401af9 <__gmon_start__@plt+0xea9>
  401f3b:	e9 47 fc ff ff       	jmpq   401b87 <__gmon_start__@plt+0xf37>
  401f40:	e8 bb eb ff ff       	callq  400b00 <__stack_chk_fail@plt>
  401f45:	48 81 c4 68 a0 00 00 	add    $0xa068,%rsp
  401f4c:	5b                   	pop    %rbx
  401f4d:	5d                   	pop    %rbp
  401f4e:	41 5c                	pop    %r12
  401f50:	41 5d                	pop    %r13
  401f52:	41 5e                	pop    %r14
  401f54:	41 5f                	pop    %r15
  401f56:	c3                   	retq
  401f57:	85 ff                	test   %edi,%edi
  401f59:	74 22                	je     401f7d <__gmon_start__@plt+0x132d>
  401f5b:	53                   	push   %rbx
  401f5c:	89 fb                	mov    %edi,%ebx
  401f5e:	be 3b 16 40 00       	mov    $0x40163b,%esi
  401f63:	bf 0e 00 00 00       	mov    $0xe,%edi
  401f68:	e8 f3 eb ff ff       	callq  400b60 <signal@plt>
  401f6d:	85 db                	test   %ebx,%ebx
  401f6f:	bf 00 00 00 00       	mov    $0x0,%edi
  401f74:	0f 49 fb             	cmovns %ebx,%edi
  401f77:	e8 94 eb ff ff       	callq  400b10 <alarm@plt>
  401f7c:	5b                   	pop    %rbx
  401f7d:	f3 c3                	repz retq
  401f7f:	55                   	push   %rbp
  401f80:	53                   	push   %rbx
  401f81:	48 83 ec 28          	sub    $0x28,%rsp
  401f85:	48 89 fd             	mov    %rdi,%rbp
  401f88:	64 48 8b 04 25 28 00 	mov    %fs:0x28,%rax
  401f8f:	00 00
  401f91:	48 89 44 24 18       	mov    %rax,0x18(%rsp)
  401f96:	31 c0                	xor    %eax,%eax
  401f98:	be 01 00 00 00       	mov    $0x1,%esi
  401f9d:	bf 0d 00 00 00       	mov    $0xd,%edi
  401fa2:	e8 b9 eb ff ff       	callq  400b60 <signal@plt>
  401fa7:	be 01 00 00 00       	mov    $0x1,%esi
  401fac:	bf 1d 00 00 00       	mov    $0x1d,%edi
  401fb1:	e8 aa eb ff ff       	callq  400b60 <signal@plt>
  401fb6:	be 01 00 00 00       	mov    $0x1,%esi
  401fbb:	bf 1d 00 00 00       	mov    $0x1d,%edi
  401fc0:	e8 9b eb ff ff       	callq  400b60 <signal@plt>
  401fc5:	ba 00 00 00 00       	mov    $0x0,%edx
  401fca:	be 01 00 00 00       	mov    $0x1,%esi
  401fcf:	bf 02 00 00 00       	mov    $0x2,%edi
  401fd4:	e8 67 ec ff ff       	callq  400c40 <socket@plt>
  401fd9:	85 c0                	test   %eax,%eax
  401fdb:	79 4f                	jns    40202c <__gmon_start__@plt+0x13dc>
  401fdd:	48 b8 45 72 72 6f 72 	movabs $0x43203a726f727245,%rax
  401fe4:	3a 20 43
  401fe7:	48 89 45 00          	mov    %rax,0x0(%rbp)
  401feb:	48 b8 6c 69 65 6e 74 	movabs $0x6e7520746e65696c,%rax
  401ff2:	20 75 6e
  401ff5:	48 89 45 08          	mov    %rax,0x8(%rbp)
  401ff9:	48 b8 61 62 6c 65 20 	movabs $0x206f7420656c6261,%rax
  402000:	74 6f 20
  402003:	48 89 45 10          	mov    %rax,0x10(%rbp)
  402007:	48 b8 63 72 65 61 74 	movabs $0x7320657461657263,%rax
  40200e:	65 20 73
  402011:	48 89 45 18          	mov    %rax,0x18(%rbp)
  402015:	c7 45 20 6f 63 6b 65 	movl   $0x656b636f,0x20(%rbp)
  40201c:	66 c7 45 24 74 00    	movw   $0x74,0x24(%rbp)
  402022:	b8 ff ff ff ff       	mov    $0xffffffff,%eax
  402027:	e9 0c 01 00 00       	jmpq   402138 <__gmon_start__@plt+0x14e8>
  40202c:	89 c3                	mov    %eax,%ebx
  40202e:	bf 40 27 40 00       	mov    $0x402740,%edi
  402033:	e8 38 eb ff ff       	callq  400b70 <gethostbyname@plt>
  402038:	48 85 c0             	test   %rax,%rax
  40203b:	75 68                	jne    4020a5 <__gmon_start__@plt+0x1455>
  40203d:	48 b8 45 72 72 6f 72 	movabs $0x44203a726f727245,%rax
  402044:	3a 20 44
  402047:	48 89 45 00          	mov    %rax,0x0(%rbp)
  40204b:	48 b8 4e 53 20 69 73 	movabs $0x6e7520736920534e,%rax
  402052:	20 75 6e
  402055:	48 89 45 08          	mov    %rax,0x8(%rbp)
  402059:	48 b8 61 62 6c 65 20 	movabs $0x206f7420656c6261,%rax
  402060:	74 6f 20
  402063:	48 89 45 10          	mov    %rax,0x10(%rbp)
  402067:	48 b8 72 65 73 6f 6c 	movabs $0x2065766c6f736572,%rax
  40206e:	76 65 20
  402071:	48 89 45 18          	mov    %rax,0x18(%rbp)
  402075:	48 b8 73 65 72 76 65 	movabs $0x6120726576726573,%rax
  40207c:	72 20 61
  40207f:	48 89 45 20          	mov    %rax,0x20(%rbp)
  402083:	c7 45 28 64 64 72 65 	movl   $0x65726464,0x28(%rbp)
  40208a:	66 c7 45 2c 73 73    	movw   $0x7373,0x2c(%rbp)
  402090:	c6 45 2e 00          	movb   $0x0,0x2e(%rbp)
  402094:	89 df                	mov    %ebx,%edi
  402096:	e8 85 ea ff ff       	callq  400b20 <close@plt>
  40209b:	b8 ff ff ff ff       	mov    $0xffffffff,%eax
  4020a0:	e9 93 00 00 00       	jmpq   402138 <__gmon_start__@plt+0x14e8>
  4020a5:	48 c7 04 24 00 00 00 	movq   $0x0,(%rsp)
  4020ac:	00
  4020ad:	48 c7 44 24 08 00 00 	movq   $0x0,0x8(%rsp)
  4020b4:	00 00
  4020b6:	66 c7 04 24 02 00    	movw   $0x2,(%rsp)
  4020bc:	48 63 50 14          	movslq 0x14(%rax),%rdx
  4020c0:	48 8b 40 18          	mov    0x18(%rax),%rax
  4020c4:	48 8d 7c 24 04       	lea    0x4(%rsp),%rdi
  4020c9:	b9 0c 00 00 00       	mov    $0xc,%ecx
  4020ce:	48 8b 30             	mov    (%rax),%rsi
  4020d1:	e8 aa ea ff ff       	callq  400b80 <__memmove_chk@plt>
  4020d6:	66 c7 44 24 02 3b 6e 	movw   $0x6e3b,0x2(%rsp)
  4020dd:	ba 10 00 00 00       	mov    $0x10,%edx
  4020e2:	48 89 e6             	mov    %rsp,%rsi
  4020e5:	89 df                	mov    %ebx,%edi
  4020e7:	e8 04 eb ff ff       	callq  400bf0 <connect@plt>
  4020ec:	85 c0                	test   %eax,%eax
  4020ee:	79 32                	jns    402122 <__gmon_start__@plt+0x14d2>
  4020f0:	41 b8 40 27 40 00    	mov    $0x402740,%r8d
  4020f6:	b9 00 27 40 00       	mov    $0x402700,%ecx
  4020fb:	48 c7 c2 ff ff ff ff 	mov    $0xffffffffffffffff,%rdx
  402102:	be 01 00 00 00       	mov    $0x1,%esi
  402107:	48 89 ef             	mov    %rbp,%rdi
  40210a:	b8 00 00 00 00       	mov    $0x0,%eax
  40210f:	e8 1c eb ff ff       	callq  400c30 <__sprintf_chk@plt>
  402114:	89 df                	mov    %ebx,%edi
  402116:	e8 05 ea ff ff       	callq  400b20 <close@plt>
  40211b:	b8 ff ff ff ff       	mov    $0xffffffff,%eax
  402120:	eb 16                	jmp    402138 <__gmon_start__@plt+0x14e8>
  402122:	89 df                	mov    %ebx,%edi
  402124:	e8 f7 e9 ff ff       	callq  400b20 <close@plt>
  402129:	66 c7 45 00 4f 4b    	movw   $0x4b4f,0x0(%rbp)
  40212f:	c6 45 02 00          	movb   $0x0,0x2(%rbp)
  402133:	b8 00 00 00 00       	mov    $0x0,%eax
  402138:	48 8b 4c 24 18       	mov    0x18(%rsp),%rcx
  40213d:	64 48 33 0c 25 28 00 	xor    %fs:0x28,%rcx
  402144:	00 00
  402146:	74 05                	je     40214d <__gmon_start__@plt+0x14fd>
  402148:	e8 b3 e9 ff ff       	callq  400b00 <__stack_chk_fail@plt>
  40214d:	48 83 c4 28          	add    $0x28,%rsp
  402151:	5b                   	pop    %rbx
  402152:	5d                   	pop    %rbp
  402153:	c3                   	retq
  402154:	53                   	push   %rbx
  402155:	48 89 cb             	mov    %rcx,%rbx
  402158:	85 d2                	test   %edx,%edx
  40215a:	74 27                	je     402183 <__gmon_start__@plt+0x1533>
  40215c:	48 89 f2             	mov    %rsi,%rdx
  40215f:	be 58 27 40 00       	mov    $0x402758,%esi
  402164:	bf 01 00 00 00       	mov    $0x1,%edi
  402169:	b8 00 00 00 00       	mov    $0x0,%eax
  40216e:	e8 4d ea ff ff       	callq  400bc0 <__printf_chk@plt>
  402173:	66 c7 03 4f 4b       	movw   $0x4b4f,(%rbx)
  402178:	c6 43 02 00          	movb   $0x0,0x2(%rbx)
  40217c:	b8 00 00 00 00       	mov    $0x0,%eax
  402181:	eb 43                	jmp    4021c6 <__gmon_start__@plt+0x1576>
  402183:	48 85 ff             	test   %rdi,%rdi
  402186:	74 30                	je     4021b8 <__gmon_start__@plt+0x1568>
  402188:	80 3f 00             	cmpb   $0x0,(%rdi)
  40218b:	74 2b                	je     4021b8 <__gmon_start__@plt+0x1568>
  40218d:	48 83 ec 08          	sub    $0x8,%rsp
  402191:	51                   	push   %rcx
  402192:	49 89 f1             	mov    %rsi,%r9
  402195:	41 b8 6f 27 40 00    	mov    $0x40276f,%r8d
  40219b:	48 89 f9             	mov    %rdi,%rcx
  40219e:	ba 77 27 40 00       	mov    $0x402777,%edx
  4021a3:	be 6e 3b 00 00       	mov    $0x3b6e,%esi
  4021a8:	bf 40 27 40 00       	mov    $0x402740,%edi
  4021ad:	e8 a9 f5 ff ff       	callq  40175b <__gmon_start__@plt+0xb0b>
  4021b2:	48 83 c4 10          	add    $0x10,%rsp
  4021b6:	eb 0e                	jmp    4021c6 <__gmon_start__@plt+0x1576>
  4021b8:	66 c7 03 4f 4b       	movw   $0x4b4f,(%rbx)
  4021bd:	c6 43 02 00          	movb   $0x0,0x2(%rbx)
  4021c1:	b8 00 00 00 00       	mov    $0x0,%eax
  4021c6:	5b                   	pop    %rbx
  4021c7:	c3                   	retq
  4021c8:	0f 1f 84 00 00 00 00 	nopl   0x0(%rax,%rax,1)
  4021cf:	00
  4021d0:	41 57                	push   %r15
  4021d2:	41 56                	push   %r14
  4021d4:	41 89 ff             	mov    %edi,%r15d
  4021d7:	41 55                	push   %r13
  4021d9:	41 54                	push   %r12
  4021db:	4c 8d 25 2e 0c 20 00 	lea    0x200c2e(%rip),%r12        # 602e10 <__gmon_start__@plt+0x2021c0>
  4021e2:	55                   	push   %rbp
  4021e3:	48 8d 2d 2e 0c 20 00 	lea    0x200c2e(%rip),%rbp        # 602e18 <__gmon_start__@plt+0x2021c8>
  4021ea:	53                   	push   %rbx
  4021eb:	49 89 f6             	mov    %rsi,%r14
  4021ee:	49 89 d5             	mov    %rdx,%r13
  4021f1:	4c 29 e5             	sub    %r12,%rbp
  4021f4:	48 83 ec 08          	sub    $0x8,%rsp
  4021f8:	48 c1 fd 03          	sar    $0x3,%rbp
  4021fc:	e8 7f e8 ff ff       	callq  400a80 <getenv@plt-0x30>
  402201:	48 85 ed             	test   %rbp,%rbp
  402204:	74 20                	je     402226 <__gmon_start__@plt+0x15d6>
  402206:	31 db                	xor    %ebx,%ebx
  402208:	0f 1f 84 00 00 00 00 	nopl   0x0(%rax,%rax,1)
  40220f:	00
  402210:	4c 89 ea             	mov    %r13,%rdx
  402213:	4c 89 f6             	mov    %r14,%rsi
  402216:	44 89 ff             	mov    %r15d,%edi
  402219:	41 ff 14 dc          	callq  *(%r12,%rbx,8)
  40221d:	48 83 c3 01          	add    $0x1,%rbx
  402221:	48 39 eb             	cmp    %rbp,%rbx
  402224:	75 ea                	jne    402210 <__gmon_start__@plt+0x15c0>
  402226:	48 83 c4 08          	add    $0x8,%rsp
  40222a:	5b                   	pop    %rbx
  40222b:	5d                   	pop    %rbp
  40222c:	41 5c                	pop    %r12
  40222e:	41 5d                	pop    %r13
  402230:	41 5e                	pop    %r14
  402232:	41 5f                	pop    %r15
  402234:	c3                   	retq
  402235:	90                   	nop
  402236:	66 2e 0f 1f 84 00 00 	nopw   %cs:0x0(%rax,%rax,1)
  40223d:	00 00 00
  402240:	f3 c3                	repz retq

Disassembly of section .fini:

0000000000402244 <.fini>:
  402244:	48 83 ec 08          	sub    $0x8,%rsp
  402248:	48 83 c4 08          	add    $0x8,%rsp
  40224c:	c3                   	retq
